(lp0
Vhttps://studentcentral.brighton.ac.uk/
p1
aVhttps://github.com/Wolfkhan66
p2
aVhttp://www.gamefromscratch.com/page/LibGDX-Tutorial-series.aspx
p3
aVhttps://www.amazon.co.uk/gp/css/homepage.html?ie=UTF8&ref_=nav_yam_ya&
p4
aVhttp://headerphile.blogspot.co.uk/2014/07/contents-of-this-blog.html
p5
aVhttp://store.steampowered.com/?cc=uk
p6
aVhttp://www.cheatcc.com/pc/pcmenu.html
p7
aVhttp://www.ebay.co.uk/
p8
aVhttp://geekologie.com/
p9
aVhttps://musopen.org/music/1967/maurice-ravel/adagio-from-piano-concerto-in-g-piano-solo-arr/
p10
aVhttps://github.com/
p11
aVhttps://help.github.com
p12
aVhttps://github.com/search
p13
aVhttps://avatars3.githubusercontent.com/u/11510721?v=3&s=400
p14
aVhttps://help.github.com/articles/why-are-my-contributions-not-showing-up-on-my-profile
p15
a.