(lp0
Vhttp://geekologie.com/
p1
aVhttp://anticlown.com/
p2
aVhttp://iwatchstuff.com/
p3
aVhttp://thesuperficial.com/
p4
aVhttp://hedonistica.com/
p5
aVhttp://www.facebook.com/geekologie
p6
aVhttp://twitter.com/geekologie
p7
aVhttp://plus.google.com/+geekologie
p8
aVhttp://geekologie.com/2016/05/pianist-turns-popular-ringtones-into-bea.php
p9
aVhttp://geekologie.com/2016/05/pianist-turns-popular-ringtones-into-bea.php#disqus_thread
p10
aVhttp://sploid.gizmodo.com/hearing-the-piano-versions-of-popular-ringtones-is-quit-1777677252
p11
a.