(lp0
Vhttps://studentcentral.brighton.ac.uk/
p1
aVhttps://github.com/Wolfkhan66
p2
aVhttp://www.gamefromscratch.com/page/LibGDX-Tutorial-series.aspx
p3
aVhttps://www.amazon.co.uk/gp/css/homepage.html?ie=UTF8&ref_=nav_yam_ya&
p4
aVhttp://headerphile.blogspot.co.uk/2014/07/contents-of-this-blog.html
p5
aVhttp://store.steampowered.com/?cc=uk
p6
aVhttp://www.cheatcc.com/pc/pcmenu.html
p7
aVhttp://www.ebay.co.uk/
p8
aVhttp://geekologie.com/
p9
aVhttps://musopen.org/music/1967/maurice-ravel/adagio-from-piano-concerto-in-g-piano-solo-arr/
p10
aVhttps://github.com/
p11
aVhttps://help.github.com
p12
aVhttps://github.com/search
p13
aVhttps://avatars3.githubusercontent.com/u/11510721?v=3&s=400
p14
aVhttps://help.github.com/articles/why-are-my-contributions-not-showing-up-on-my-profile
p15
aVhttps://status.github.com/
p16
aVhttps://developer.github.com
p17
aVhttps://training.github.com
p18
aVhttps://shop.github.com
p19
aVhttps://github.com/blog
p20
aVhttps://github.com/about
p21
aVhttps://github.com
p22
aVhttps://github.com/site/terms
p23
aVhttps://github.com/site/privacy
p24
aVhttps://github.com/security
p25
aVhttps://github.com/contact
p26
aVhttp://www.gamefromscratch.com/
p27
aVhttp://www.gamefromscratch.com/archive.aspx
p28
aVhttps://www.youtube.com/subscription_center?add_user=GameFromScratch
p29
aVhttps://www.patreon.com/gamefromscratch
p30
aVhttps://twitter.com/gamefromscratch
p31
aVhttp://www.gamefromscratch.com/page/LibGDX-Video-Tutorial-Series.aspx
p32
aVhttp://www.gamefromscratch.com/post/2013/09/19/LibGDX-Tutorial-1-Creating-an-initial-project.aspx
p33
aVhttp://www.gamefromscratch.com/post/2013/09/26/LibGDX-Tutorial-2-Hello-World.aspx
p34
aVhttp://www.gamefromscratch.com/post/2013/10/02/LibGDX-Tutorial-3-Basic-graphics.aspx
p35
aVhttp://www.gamefromscratch.com/post/2013/12/09/LibGDX-Tutorial-3B-Simple-Animation.aspx
p36
aVhttp://www.gamefromscratch.com/post/2013/10/15/LibGDX-Tutorial-4-Handling-the-mouse-and-keyboard.aspx
p37
aVhttp://www.gamefromscratch.com/post/2013/10/24/LibGDX-Tutorial-5-Handling-Input-Touch-and-gestures.aspx
p38
aVhttp://www.gamefromscratch.com/post/2013/10/30/LibGDX-Tutorial-6-Motion-controls.aspx
p39
aVhttp://www.gamefromscratch.com/post/2013/11/06/LibGDX-Tutorial-7-Camera-basics.aspx
p40
aVhttp://www.gamefromscratch.com/post/2013/11/19/LibGDX-Tutorial-8-Audio.aspx
p41
aVhttp://www.gamefromscratch.com/post/2013/11/27/LibGDX-Tutorial-9-Scene2D-Part-1.aspx
p42
aVhttp://www.gamefromscratch.com/post/2013/12/09/LibGDX-Tutorial-9-Scene2D-Part-2-Actions.aspx
p43
aVhttp://www.gamefromscratch.com/post/2013/12/11/LibGDX-Tutorial-3C-Scene-management.aspx
p44
aVhttp://www.gamefromscratch.com/post/2013/12/18/LibGDX-Tutorial-9-Scene2D-Part-3-UI-Skins.aspx
p45
aVhttp://www.gamefromscratch.com/post/2014/03/11/LibGDX-Tutorial-10-Basic-networking.aspx
p46
aVhttp://www.gamefromscratch.com/post/2014/04/15/A-quick-look-at-Tiled-An-open-source-2D-level-editor.aspx
p47
aVhttp://www.gamefromscratch.com/post/2014/04/16/LibGDX-Tutorial-11-Tiled-Maps-Part-1-Simple-Orthogonal-Maps.aspx
p48
aVhttp://www.gamefromscratch.com/post/2014/05/01/LibGDX-Tutorial-11-Tiled-Maps-Part-2-Adding-a-character-sprite.aspx
p49
aVhttp://www.gamefromscratch.com/post/2014/07/08/LibGDX-Tutorial-Part-12-Using-GLSL-Shaders-and-creating-a-Mesh.aspx
p50
aVhttp://www.google.com
p51
aVhttps://en.wikipedia.org/wiki/Main_Page
p52
aVhttp://www.gamefromscratch.com/post/2014/09/25/LibGDX-LibGDX-Tutorial-13-Physics-with-Box2D-Part-3-Collisions.aspx
p53
aVhttp://www.gamefromscratch.com/post/2014/09/25/LibGDX-LibGDX-Tutorial-13-Physics-with-Box2D-Part-4-Controlling-collisions-using-filters.aspx
p54
aVhttp://www.gamefromscratch.com/post/2014/09/22/LibGDX-Tutorial-Part-14-Gamepad-support.aspx
p55
aVhttp://www.gamefromscratch.com/post/2014/11/03/LibGDX-Tutorial-Part-15-Particles-Part-One-2D-Particles.aspx
p56
aVhttps://www.youtube.com/watch?v=HXYqg3G5kCo
p57
aVhttp://www.gamefromscratch.com/post/2014/12/08/LibGDX-Tutorial-Part-16-Cameras.aspx
p58
aVhttp://www.gamefromscratch.com/post/2014/12/09/LibGDX-Tutorial-Part-17-Viewports.aspx
p59
aVhttp://www.gamefromscratch.com/post/2013/10/07/Speeding-up-GWT-compilation-speeds-in-a-LibGDX-project.aspx
p60
aVhttp://www.gamefromscratch.com/post/2013/12/01/Using-LibGDX-with-IntelliJ-with-Gradle.aspx
p61
aVhttp://www.gamefromscratch.com/post/2014/03/26/Want-to-use-LibGDX-but-hate-Eclipse-Good-news-with-Gradle-IntelliJ-just-became-easier.aspx
p62
aVhttp://www.gamefromscratch.com/post/2014/01/10/LibGDX-minimal-3D-app.aspx
p63
aVhttp://www.gamefromscratch.com/post/2014/01/19/3D-models-and-animation-from-Blender-to-LibGDX.aspx
p64
aVhttp://www.gamefromscratch.com/post/2014/01/14/Building-LibGDXs-fbx-conv-on-Mac-OS.aspx
p65
aVhttp://www.gamefromscratch.com/post/2014/04/03/Troubleshooting-IntelliJLibGDXRoboVMGradle-issues-on-Mac-OS.aspx
p66
aVhttp://www.gamefromscratch.com/post/2014/02/14/No-bones-about-it-Bones-in-LibGDX-and-Blender.aspx
p67
aVhttp://www.gamefromscratch.com/post/2014/02/05/So-this-moving-bones-in-LibGDX-models-is-easier-than-I-thought.aspx
p68
aVhttp://www.gamefromscratch.com/post/2014/01/21/Rendering-a-3D-model-to-texture-in-LibGDX.aspx
p69
aVhttp://www.gamefromscratch.com/post/2014/10/28/Re-using-actions-in-LibGDX.aspx
p70
aVhttp://disqus.com/?ref_noscript=gamefromscratch
p71
aVhttp://disqus.com
p72
aVhttp://statcounter.com/free-hit-counter/
p73
aVhttps://www.amazon.co.uk/ap/signin?_encoding=UTF8&openid.assoc_handle=gbflex&openid.claimed_id=http%3A%2F%2Fspecs.openid.net%2Fauth%2F2.0%2Fidentifier_select&openid.identity=http%3A%2F%2Fspecs.openid.net%2Fauth%2F2.0%2Fidentifier_select&openid.mode=checkid_setup&openid.ns=http%3A%2F%2Fspecs.openid.net%2Fauth%2F2.0&openid.ns.pape=http%3A%2F%2Fspecs.openid.net%2Fextensions%2Fpape%2F1.0&openid.pape.max_auth_age=0&openid.return_to=https%3A%2F%2Fwww.amazon.co.uk%2Fgp%2Fyour-account%2Forder-history%3Fie%3DUTF8%26ref_%3Dya_orders_ap&pageId=webcs-yourorder&showRmrMe=1
p74
aVhttps://www.amazon.co.uk/ap/signin?_encoding=UTF8&openid.assoc_handle=gbamazon&openid.claimed_id=http%3A%2F%2Fspecs.openid.net%2Fauth%2F2.0%2Fidentifier_select&openid.identity=http%3A%2F%2Fspecs.openid.net%2Fauth%2F2.0%2Fidentifier_select&openid.mode=checkid_setup&openid.ns=http%3A%2F%2Fspecs.openid.net%2Fauth%2F2.0&openid.return_to=https%3A%2F%2Fwww.amazon.co.uk%2Fgp%2Fcss%2Forder-history%3Fie%3DUTF8%26orderFilter%3Darchived%26ref_%3Dya_view_archived_orders_link
p75
aVhttps://www.amazon.co.uk/ap/cnep?_encoding=UTF8&openid.assoc_handle=gbflex&openid.claimed_id=http%3A%2F%2Fspecs.openid.net%2Fauth%2F2.0%2Fidentifier_select&openid.identity=http%3A%2F%2Fspecs.openid.net%2Fauth%2F2.0%2Fidentifier_select&openid.mode=checkid_setup&openid.ns=http%3A%2F%2Fspecs.openid.net%2Fauth%2F2.0&openid.ns.pape=http%3A%2F%2Fspecs.openid.net%2Fextensions%2Fpape%2F1.0&openid.pape.max_auth_age=0&openid.return_to=https%3A%2F%2Fwww.amazon.co.uk%2Fgp%2Fcss%2Fhomepage.html%3Fie%3DUTF8%26ref_%3Dya_cnep
p76
aVhttps://www.amazon.co.uk/ap/forgotpassword?_encoding=UTF8&openid.assoc_handle=gbflex&openid.claimed_id=http%3A%2F%2Fspecs.openid.net%2Fauth%2F2.0%2Fidentifier_select&openid.identity=http%3A%2F%2Fspecs.openid.net%2Fauth%2F2.0%2Fidentifier_select&openid.mode=checkid_setup&openid.ns=http%3A%2F%2Fspecs.openid.net%2Fauth%2F2.0&openid.ns.pape=http%3A%2F%2Fspecs.openid.net%2Fextensions%2Fpape%2F1.0&openid.pape.max_auth_age=0&openid.return_to=https%3A%2F%2Fwww.amazon.co.uk%2Fgp%2Fcss%2Fhomepage.html%3Fie%3DUTF8%26ref_%3Dya_forgot_password
p77
aVhttps://www.amazon.co.uk:443/gp/redirect.html?location=https://www.audible.co.uk/account-details/ref=ya_mng_audible&token=1DC3062364FB8268C1F0A44548643EC7C91852CE&source=standards
p78
aVhttps://www.amazon.co.uk:443/gp/redirect.html?ie=UTF8&location=https%3A%2F%2Fsellercentral.amazon.co.uk%2Fgp%2Fhomepage.html%3Fld%3DAZUKSOAYA&source=standards&token=AD6C5C9DF86610A17F1C5F6182363651D3BE8FDB
p79
aVhttps://www.amazon.co.uk:443/gp/redirect.html?ie=UTF8&location=https%3A%2F%2Fsellercentral.amazon.co.uk%2Fgp%2Fflex%2Fsign-in-syh.html%3Fldcode%3DAZAYA&source=standards&token=AD6C5C9DF86610A17F1C5F6182363651D3BE8FDB
p80
aVhttps://www.amazon.jobs/en-gb
p81
aVhttps://www.amazon.co.uk/about
p82
aVhttps://services.amazon.co.uk/services/sell-online/how-it-works-pro.html?ld=AZUKSOAFooter
p83
aVhttps://affiliate-program.amazon.co.uk
p84
aVhttps://services.amazon.co.uk/services/fulfilment-by-amazon/features-benefits/?ld=AZUKFBAFooter
p85
aVhttps://services.amazon.co.uk/services/sponsored-products/how-it-works.html/ref=AMZfooter_UK_SP?ld=AZUKSPFooter
p86
aVhttps://kdp.amazon.com/help/?topicId=A32I2OF1510VZV
p87
aVhttps://payments.amazon.co.uk?ld=AWREUKAPAFooter
p88
aVhttps://services.amazon.co.uk/services.html?ld=AZUKALLFooter
p89
aVhttps://www.amazon.co.uk/membershiprewards
p90
aVhttps://www.amazon.com.au
p91
aVhttps://www.amazon.com.br
p92
aVhttps://www.amazon.ca/
p93
aVhttps://www.amazon.cn/
p94
aVhttps://www.amazon.fr/
p95
aVhttps://www.amazon.de/
p96
aVhttps://www.amazon.in/
p97
aVhttps://www.amazon.it/
p98
aVhttps://www.amazon.co.jp/
p99
aVhttps://www.amazon.com.mx/
p100
aVhttps://www.amazon.nl/
p101
aVhttps://www.amazon.es/
p102
aVhttps://www.abebooks.co.uk/
p103
aVhttps://www.acx.com/
p104
aVhttp://www.buyvip.com/
p105
aVhttps://tickets.amazon.co.uk/?ref_=al_AMZ_footer
p106
aVhttps://aws.amazon.com/what-is-cloud-computing/?sc_channel=EL&sc_campaign=UK_amazonfooter
p107
aVhttps://www.audible.co.uk/
p108
aVhttps://www.bookdepository.com/
p109
aVhttps://www.createspace.com/diy-gb?ref=1681470
p110
aVhttps://www.diapers.com/
p111
aVhttps://www.dpreview.com
p112
aVhttps://www.goodreads.com/
p113
aVhttps://www.imdb.com/
p114
aVhttps://www.junglee.com/
p115
aVhttps://kdp.amazon.com/
p116
aVhttps://www.myhabit.com/
p117
aVhttps://www.shopbop.com/uk/welcome
p118
aVhttps://www.yoyo.com/
p119
aVhttp://headerphile.blogspot.co.uk/
p120
aVhttp://headerphile.blogspot.no/search/label/SDL2%20Tutorial
p121
aVhttp://headerphile.blogspot.no/2014/04/setting-up-sdl2.html
p122
aVhttp://headerphile.blogspot.no/2014/04/a-quick-introduction-to-sdl-2-part-1.html
p123
aVhttp://headerphile.blogspot.no/2014/04/part-3-game-programming-in-sdl2-drawing.html
p124
aVhttp://headerphile.blogspot.no/2014/04/part-3-game-programming-in-sdl2-making.html
p125
aVhttp://headerphile.blogspot.no/2014/04/part-5-game-programming-in-sdl2.html
p126
aVhttp://headerphile.blogspot.no/2014/05/part-5-game-programming-in-sdl2-lets.html
p127
aVhttp://headerphile.blogspot.no/2014/06/part-7-game-programming-in-sdl2-using.html
p128
aVhttp://headerphile.blogspot.no/2014/06/part-8-its-time-for-another-update.html
p129
aVhttp://headerphile.blogspot.no/2014/07/part-9-no-more-delays.html
p130
aVhttp://headerphile.blogspot.no/2014/07/sdl2-part-10-text-rendering.html
p131
aVhttp://headerphile.blogspot.no/search/label/Cpp11
p132
aVhttp://headerphile.blogspot.no/2014/04/my-favorite-c11-property.html
p133
aVhttp://headerphile.blogspot.no/2014/07/my-favorite-c-features-chrono-part-2.html
p134
aVhttp://headerphile.blogspot.no/2014/08/c11-part-3-smart-pointers.html
p135
aVhttps://plus.google.com/112142210174405303471
p136
aVhttps://www.blogger.com/post-edit.g?blogID=7328688583065166977&postID=1175179313374429232&from=pencil
p137
aVhttps://www.blogger.com/share-post.g?blogID=7328688583065166977&postID=1175179313374429232&target=email
p138
aVhttps://www.blogger.com/share-post.g?blogID=7328688583065166977&postID=1175179313374429232&target=blog
p139
aVhttps://www.blogger.com/share-post.g?blogID=7328688583065166977&postID=1175179313374429232&target=twitter
p140
aVhttps://www.blogger.com/share-post.g?blogID=7328688583065166977&postID=1175179313374429232&target=facebook
p141
aVhttps://www.blogger.com/share-post.g?blogID=7328688583065166977&postID=1175179313374429232&target=pinterest
p142
aVhttp://headerphile.blogspot.co.uk/search/label/C%2B%2B
p143
aVhttp://headerphile.blogspot.co.uk/search/label/C%2B%2B11
p144
aVhttp://headerphile.blogspot.co.uk/search/label/chrono
p145
aVhttp://headerphile.blogspot.co.uk/search/label/Data%20Structures
p146
aVhttps://www.blogger.com/comment-iframe.g?blogID=7328688583065166977&postID=1175179313374429232
p147
aVhttp://headerphile.blogspot.co.uk/2014/07/sdl2-part-10-text-rendering.html
p148
aVhttp://headerphile.blogspot.co.uk/2014/07/my-favorite-c-features-chrono-part-2.html
p149
aVhttp://headerphile.blogspot.com/feeds/1175179313374429232/comments/default
p150
a.