(lp0
Vhttp://headerphile.blogspot.no/2014/07/contents-of-this-blog.html
p1
aVhttp://headerphile.blogspot.no/search/label/Data%20Structures
p2
aVhttps://github.com/olevegard
p3
aVhttps://www.blogger.com
p4
aVhttps://store.steampowered.com//login/?redir=%3Fcc%3Duk
p5
aVhttp://store.steampowered.com/
p6
aVhttp://store.steampowered.com/explore/
p7
aVhttp://store.steampowered.com/curators/
p8
aVhttp://steamcommunity.com/my/wishlist/
p9
aVhttp://store.steampowered.com/news/
p10
a.