(lp0
Vhttps://www.google.com
p1
aS'https://www.google.com'
p2
aVhttps://www.google.co.uk/imghp?hl=en&tab=wi
p3
aVhttps://www.youtube.com/?gl=GB&tab=w1
p4
aVhttps://www.google.co.uk/intl/en/options/
p5
aVhttps://www.google.co.uk/setprefdomain?prefdom=US&sig=__kdL0oRVDeDk_zoUFHLhonN_Kjgw%3D
p6
aVhttps://www.google.co.uk/setprefdomain?prefdom=US&sig=__lIkVYNIC6DXKQTBh3hkJ6Fmy3lY%3D
p7
aVhttps://www.google.co.uk/webhp?hl=en&tab=iw
p8
aVhttps://www.youtube.com/?hl=en&gl=GB&tab=i1
p9
aVhttps://www.google.co.uk/intl/en-GB/policies/privacy/
p10
aVhttps://www.google.com/intx/en_uk/enterprise/apps/business/index.html?utm_source=google_products&utm_medium=et&utm_campaign=smb_apps
p11
aVhttps://www.google.co.uk/business/?gmbsrc=uk-en-et-gs-z-gmb-s-z-h~pro-z-u&ppsrc=GMBB0&utm_campaign=uk-en-et-gs-z-gmb-s-z-h~pro-z-u&utm_source=gmb&utm_medium=et
p12
aVhttps://www.google.co.uk/setprefdomain?prefdom=US&sig=__wLzPYE7_JppcEEeprqEYYTDwoB4%3D
p13
aVhttps://www.google.co.uk/setprefdomain?prefdom=US&sig=__ReqiKRBcS96Wzsg3s9M2a6TEl84%3D
p14
aVhttps://www.youtube.com/?hl=en&gl=GB&tab=w1
p15
aVhttps://www.google.co.uk/setprefdomain?prefdom=US&sig=__XnE-fmP4B2nuwdRmclOHZ9QQ7U4%3D
p16
aVhttps://www.google.com/intl/en/policies/privacy/
p17
aVhttps://www.google.com/dashboard/?hl=en-GB
p18
aVhttps://www.google.com/settings/ads/preferences?hl=en-GB
p19
aVhttps://www.google.com/work/apps/terms/education_privacy.html
p20
aVhttps://www.youtube.com/embed/zcjYUbypgx0?vq=hd1080&autoplay=1&rel=0
p21
aVhttps://www.youtube.com/embed/7NTTAs7IleA?vq=hd1080&autoplay=1&rel=0
p22
aVhttps://www.youtube.com/embed/_PQmqJOD3S4?vq=hd1080&autoplay=1&rel=0
p23
aVhttps://www.youtube.com/embed/BzMidTWYsME?vq=hd1080&autoplay=1&rel=0
p24
aVhttps://www.google.co.uk/setprefdomain?prefdom=US&sig=__HJi8LGm3OOVpyhxMlRS3Iki_PkE%3D
p25
aVhttps://www.google.co.uk/setprefdomain?prefdom=US&sig=__s6Z47ZIgUWjZVS_adhiBjgdvV3g%3D
p26
aVhttps://www.google.co.uk/setprefdomain?prefdom=US&sig=__agR-ZclX29JbFRmJ6JeY3DErGEA%3D
p27
aVhttps://www.google.com/dashboard/?hl=en
p28
aVhttps://www.google.com/settings/ads/preferences?hl=en
p29
aVhttps://www.google.com/intl/en-GB/about
p30
aVhttps://www.google.co.uk/webhp
p31
aVhttps://www.youtube.com/
p32
aVhttps://www.google.com/calendar
p33
aVhttps://www.google.co.uk/intl/en-GB/options/
p34
aVhttps://www.google.com/chrome/?hl=en-GB
p35
aVhttps://www.mozilla.com/firefox/
p36
aVhttps://www.apple.com/safari/download/
p37
aVhttps://www.google.com/webhp?hl=en-GB
p38
aVhttps://www.google.com/policies/?hl=en-GB
p39
a.