(lp0
Vhttps://www.google.com
p1
aS'https://www.google.com'
p2
aVhttps://www.google.co.uk/imghp?hl=en&tab=wi
p3
aVhttps://www.youtube.com/?gl=GB&tab=w1
p4
aVhttps://www.google.co.uk/intl/en/options/
p5
aVhttps://www.google.co.uk/setprefdomain?prefdom=US&sig=__EUmqrtA2Bz8CXCOtpCroS_sSKMg%3D
p6
aVhttps://www.google.co.uk/setprefdomain?prefdom=US&sig=__k7hD85EVnyerc8NYPxmgGSMMlSo%3D
p7
aVhttps://www.google.co.uk/webhp?hl=en&tab=iw
p8
aVhttps://www.youtube.com/?hl=en&gl=GB&tab=i1
p9
aVhttps://www.google.co.uk/intl/en-GB/policies/privacy/
p10
aVhttps://www.google.com/intx/en_uk/enterprise/apps/business/index.html?utm_source=google_products&utm_medium=et&utm_campaign=smb_apps
p11
aVhttps://www.google.co.uk/business/?gmbsrc=uk-en-et-gs-z-gmb-s-z-h~pro-z-u&ppsrc=GMBB0&utm_campaign=uk-en-et-gs-z-gmb-s-z-h~pro-z-u&utm_source=gmb&utm_medium=et
p12
aVhttps://www.google.co.uk/setprefdomain?prefdom=US&sig=__ia7ccBx3FtRbNCCDayoETllj7eg%3D
p13
aVhttps://www.google.co.uk/setprefdomain?prefdom=US&sig=___A9fKnI_WPgdBaTpkHMysVGYu_I%3D
p14
aVhttps://www.youtube.com/?hl=en&gl=GB&tab=w1
p15
aVhttps://www.google.co.uk/setprefdomain?prefdom=US&sig=__wcaFi58dsTOYWCSqtb2U06su5-M%3D
p16
aVhttps://www.google.com/intl/en/policies/privacy/
p17
aVhttps://www.google.com/dashboard/?hl=en-GB
p18
aVhttps://www.google.com/settings/ads/preferences?hl=en-GB
p19
aVhttps://www.google.com/work/apps/terms/education_privacy.html
p20
a.