(lp0
Vhttps://www.google.com
p1
aVhttps://musopen.org/music/1967/maurice-ravel/adagio-from-piano-concerto-in-g-piano-solo-arr/
p2
aVhttps://github.com/libgdx/libgdx/wiki/A-simple-game
p3
aVhttps://www.facebook.com/
p4
aVhttp://dalibornasevic.com/posts/2-permanently-remove-files-and-folders-from-a-git-repository
p5
aVhttp://geekologie.com/
p6
aVhttps://github.com/Wolfkhan66
p7
aVhttps://www.youtube.com/
p8
aVhttp://www.zergnet.com/
p9
aVhttps://studentcentral.brighton.ac.uk/
p10
aVhttps://www.hackerrank.com/domains
p11
aVhttp://www.justinguitar.com/
p12
aVhttp://store.steampowered.com/?cc=uk
p13
aVhttps://musopen.org/
p14
aVhttps://creativecommons.org/licenses/by/3.0/
p15
aVhttps://github.com/
p16
aVhttps://help.github.com
p17
aVhttps://github.com/search
p18
aVhttp://www.freesound.org/people/junggle/sounds/30341/
p19
aVhttp://www.freesound.org/people/acclivity/sounds/28283/
p20
aVhttps://www.box.com/s/peqrdkwjl6guhpm48nit
p21
aVhttps://www.box.com/s/605bvdlwuqubtutbyf4x
p22
aVhttps://github.com/libgdx/libgdx/blob/master/tests/gdx-tests/src/com/badlogic/gdx/tests/YDownTest.java
p23
aVhttp://www.badlogicgames.com/forum/viewtopic.php?f=11&t=3565
p24
aVhttps://github.com/libgdx/libgdx/wiki/Memory-management#object-pooling
p25
aVhttps://status.github.com/
p26
aVhttps://developer.github.com
p27
aVhttps://training.github.com
p28
aVhttps://shop.github.com
p29
aVhttps://github.com/blog
p30
aVhttps://github.com/about
p31
aVhttps://github.com
p32
aVhttps://github.com/site/terms
p33
aVhttps://github.com/site/privacy
p34
aVhttps://github.com/security
p35
aVhttps://github.com/contact
p36
aVhttps://pl-pl.facebook.com/
p37
aVhttps://es-la.facebook.com/
p38
aVhttps://fr-fr.facebook.com/
p39
aVhttps://it-it.facebook.com/
p40
aVhttps://lt-lt.facebook.com/
p41
aVhttps://ro-ro.facebook.com/
p42
aVhttps://zh-cn.facebook.com/
p43
aVhttps://pt-br.facebook.com/
p44
aVhttps://de-de.facebook.com/
p45
aVhttps://ar-ar.facebook.com/
p46
aVhttps://messenger.com/
p47
aVhttps://developers.facebook.com/?ref=pf
p48
aVhttps://www.facebook.com/help/568137493302217
p49
aVhttps://www.godaddy.com
p50
aVhttps://twitter.com/dnasevic
p51
aVhttps://github.com/dalibor
p52
aVhttps://github.com/dalibor/dalibornasevic.com
p53
aVhttp://www.kernel.org/pub/software/scm/git/docs/git-filter-branch.html
p54
aVhttp://disqus.com/?ref_noscript
p55
aVhttp://anticlown.com/
p56
aVhttp://iwatchstuff.com/
p57
aVhttp://thesuperficial.com/
p58
aVhttp://hedonistica.com/
p59
aVhttp://www.facebook.com/geekologie
p60
aVhttp://twitter.com/geekologie
p61
aVhttp://plus.google.com/+geekologie
p62
aVhttp://geekologie.com/2016/05/pianist-turns-popular-ringtones-into-bea.php
p63
aVhttp://geekologie.com/2016/05/pianist-turns-popular-ringtones-into-bea.php#disqus_thread
p64
aVhttp://sploid.gizmodo.com/hearing-the-piano-versions-of-popular-ringtones-is-quit-1777677252
p65
aVhttp://geekologie.com/2015/07/all-the-music-and-sound-effects-in-super.php
p66
aVhttp://geekologie.com/2016/03/making-due-man-performs-zero-string-bass.php
p67
aVhttp://geekologie.com/2015/05/giant-octobasse-stringed-instrument-can.php
p68
aVhttp://geekologie.com/2016/05/amputee-gamer-gets-metal-gear-solid-insp.php
p69
aVhttp://geekologie.com/2016/05/amputee-gamer-gets-metal-gear-solid-insp.php#disqus_thread
p70
aVhttp://www.thealternativelimbproject.com/project/phantom-limb/
p71
aVhttp://geekologie.com/2010/09/the-future-is-now-transparent.php
p72
aVhttp://geekologie.com/2016/03/needs-more-pews-laser-blaster-rust-remov.php
p73
aVhttp://geekologie.com/2015/10/oh-wow-spongebob-sings-black-sabbaths-wa.php
p74
aVhttp://geekologie.com/2016/05/pump-to-the-video-p0rnhub-releases-exerc.php
p75
aVhttp://geekologie.com/2016/05/pump-to-the-video-p0rnhub-releases-exerc.php#disqus_thread
p76
aVhttp://mashable.com/2016/05/18/pornhub-sexercise-app/#5iyG9GKumaq0
p77
aVhttp://geekologie.com/2016/02/finally-the-magic-8-ball-sex-toy-youve-b.php
p78
aVhttp://geekologie.com/2016/03/firefighting-fun-throwable-fire-extingui.php
p79
aVhttp://geekologie.com/2015/06/three-schoolchildren-invent-condom-that.php
p80
aVhttp://geekologie.com/2016/05/a-vision-of-the-future-w-augmented-reali.php
p81
aVhttp://geekologie.com/2016/05/a-vision-of-the-future-w-augmented-reali.php#disqus_thread
p82
aVhttp://hedonistica.com/art-and-design/hyper-reality/
p83
aVhttp://geekologie.com/2016/03/wtf-was-that-five-on-five-mma-style-figh.php
p84
aVhttp://geekologie.com/2016/03/damn-rich-people-a-105000-luxury-fountai.php
p85
aVhttp://geekologie.com/2014/04/yep-the-game-of-thrones-themed-performed.php
p86
aVhttp://geekologie.com/2016/05/my-dorm-room-demands-it-an-8-foot-beanba.php
p87
aVhttp://geekologie.com/2016/05/my-dorm-room-demands-it-an-8-foot-beanba.php#disqus_thread
p88
aVhttp://geekologie.com/2016/05/i-just-need-four-more-friends-giant-5-pe.php
p89
aVhttp://geekologie.com/2016/04/new-cruise-ship-with-two-level-outdoor-g.php
p90
aVhttp://geekologie.com/2015/07/every-nights-a-sleepover-the-giant-minio.php
p91
aVhttp://geekologie.com/2016/05/extreme-sports-woman-playing-jenga-with.php
p92
aVhttp://geekologie.com/2016/05/extreme-sports-woman-playing-jenga-with.php#disqus_thread
p93
aVhttps://www.facebook.com/WithoutShade
p94
aVhttp://geekologie.com/image.php?path=/2016/05/20/claw-machine-winnings.jpg
p95
aVhttp://geekologie.com/2016/04/choo-choo-cool-first-person-view-from-le.php
p96
aVhttp://geekologie.com/2016/04/mad-skills-taiwanese-spintop-trickshot-e.php
p97
aVhttp://geekologie.com/2016/05/woman-loses-her-mind-over-talking-chewba.php
p98
aVhttp://geekologie.com/2016/05/woman-loses-her-mind-over-talking-chewba.php#disqus_thread
p99
aVhttps://www.facebook.com/candaceSpayne
p100
a.