(lp0
Vhttp://geekologie.com/2015/05/giant-octobasse-stringed-instrument-can.php
p1
aVhttp://geekologie.com/2016/05/amputee-gamer-gets-metal-gear-solid-insp.php
p2
aVhttp://geekologie.com/2016/05/amputee-gamer-gets-metal-gear-solid-insp.php#disqus_thread
p3
aVhttp://www.kotaku.com.au/2016/05/this-gamer-has-an-arm-inspired-by-big-boss-from-metal-gear-solid/
p4
aVhttp://www.thealternativelimbproject.com/project/phantom-limb/
p5
aVhttp://geekologie.com/2010/09/the-future-is-now-transparent.php
p6
aVhttp://geekologie.com/2016/03/needs-more-pews-laser-blaster-rust-remov.php
p7
aVhttp://geekologie.com/2015/10/oh-wow-spongebob-sings-black-sabbaths-wa.php
p8
aVhttp://geekologie.com/2016/05/pump-to-the-video-p0rnhub-releases-exerc.php
p9
aVhttp://geekologie.com/2016/05/pump-to-the-video-p0rnhub-releases-exerc.php#disqus_thread
p10
aVhttp://mashable.com/2016/05/18/pornhub-sexercise-app/#5iyG9GKumaq0
p11
aVhttp://geekologie.com/2016/02/finally-the-magic-8-ball-sex-toy-youve-b.php
p12
aVhttp://geekologie.com/2016/03/firefighting-fun-throwable-fire-extingui.php
p13
aVhttp://geekologie.com/2015/06/three-schoolchildren-invent-condom-that.php
p14
aVhttp://geekologie.com/2016/05/a-vision-of-the-future-w-augmented-reali.php
p15
aVhttp://geekologie.com/2016/05/a-vision-of-the-future-w-augmented-reali.php#disqus_thread
p16
aVhttp://hedonistica.com/art-and-design/hyper-reality/
p17
aVhttp://geekologie.com/2016/03/wtf-was-that-five-on-five-mma-style-figh.php
p18
aVhttp://geekologie.com/2016/03/damn-rich-people-a-105000-luxury-fountai.php
p19
aVhttp://geekologie.com/2014/04/yep-the-game-of-thrones-themed-performed.php
p20
aVhttp://geekologie.com/2016/05/my-dorm-room-demands-it-an-8-foot-beanba.php
p21
aVhttp://geekologie.com/2016/05/my-dorm-room-demands-it-an-8-foot-beanba.php#disqus_thread
p22
aVhttp://www.ohgizmo.com/2016/05/16/chill-bag-the-eight-foot-bean-bag/
p23
aVhttp://www.amazon.com/gp/product/B00P21UAHK/
p24
aVhttp://geekologie.com/2016/05/i-just-need-four-more-friends-giant-5-pe.php
p25
aVhttp://geekologie.com/2016/04/new-cruise-ship-with-two-level-outdoor-g.php
p26
aVhttp://geekologie.com/2015/07/every-nights-a-sleepover-the-giant-minio.php
p27
aVhttp://geekologie.com/2016/05/extreme-sports-woman-playing-jenga-with.php
p28
aVhttp://geekologie.com/2016/05/extreme-sports-woman-playing-jenga-with.php#disqus_thread
p29
aVhttps://www.facebook.com/WithoutShade
p30
aVhttp://nerdist.com/jenga-played-with-a-whip-is-a-lot-harder-but-way-more-impressive/
p31
aVhttp://geekologie.com/image.php?path=/2016/05/20/claw-machine-winnings.jpg
p32
aVhttp://geekologie.com/2016/04/choo-choo-cool-first-person-view-from-le.php
p33
aVhttp://geekologie.com/2016/04/mad-skills-taiwanese-spintop-trickshot-e.php
p34
aVhttp://geekologie.com/2016/05/woman-loses-her-mind-over-talking-chewba.php
p35
aVhttp://geekologie.com/2016/05/woman-loses-her-mind-over-talking-chewba.php#disqus_thread
p36
aVhttps://www.facebook.com/candaceSpayne
p37
aVhttp://geekologie.com/2016/02/awwww-father-mods-stormtrooper-costume-i.php
p38
aVhttp://geekologie.com/2016/05/i-am-into-this-tailgaters-tow-hitch-doub.php
p39
aVhttp://geekologie.com/2016/05/difficult-trying-to-walk-in-109-mile-per.php
p40
aVhttp://geekologie.com/2016/05/difficult-trying-to-walk-in-109-mile-per.php#disqus_thread
p41
aVhttp://sploid.gizmodo.com/what-its-like-to-walk-against-100-mph-winds-1777148803
p42
aVhttp://geekologie.com/2016/05/physics-and-magic-amazing-marbles-and-ma.php
p43
aVhttp://geekologie.com/2015/12/two-skateboarders-trade-boards-midair-ov.php
p44
aVhttp://geekologie.com/2015/11/amaro-and-waldens-joyride-awesome-video.php
p45
aVhttp://geekologie.com/2016/05/congratulations-man-sets-new-record-for.php
p46
aVhttp://geekologie.com/2016/05/beautiful-giant-octopus-kite-with-waving.php
p47
aVhttp://geekologie.com/2016/05/the-end-nears-dogo-a-tiny-tank-robot-wit.php
p48
aVhttp://geekologie.com/2016/05/there-goes-my-summer-body-reeses-releasi.php
p49
aVhttp://geekologie.com/2016/05/thats-gonna-hurt-what-a-zero-star-crash.php
p50
aVhttp://geekologie.com/2016/05/doctors-perform-first-successful-penis-t-1.php
p51
aVhttp://feeds.feedburner.com/geekologie/iShm
p52
aVhttp://www.anticlown.com/privacy_policy.php
p53
aVhttp://www.anticlown.com/terms_of_use.php
p54
aVhttp://www.anticlown.com/removal.php
p55
aVhttp://s16.sitemeter.com/stats.asp?site=s16anticlown
p56
aVhttp://twitter.com/#!/anticlown
p57
aVhttps://www.facebook.com/anticlown
p58
aVhttp://iwatchstuff.com/2016/05/first-look-at-charlize-theron-in-fast-8.php
p59
aVhttp://iwatchstuff.com/2016/05/skyler-white-gets-in-on-wall-street-in-t.php
p60
aVhttp://iwatchstuff.com/2016/05/watch-a-hanna-barbera-style-nice-guys-an.php
p61
aVhttps://www.youtube.com/watch?v=I7z8yQGRUzM
p62
aVhttp://iwatchstuff.com/2016/05/kristen-stewart-gets-bro-haunted-in-pers.php
p63
aVhttp://iwatchstuff.com/2016/05/heres-everything-abc-is-hoping-youll-sta.php
p64
aVhttp://iwatchstuff.com/2016/05/watch-the-80s-commercial-for-xaviers-sch.php
p65
aVhttp://iwatchstuff.com/2016/05/everybody-loves-brain-men-now-brad-garre.php
p66
aVhttp://www.latimes.com/entertainment/herocomplex/la-et-hc-krang-teenage-mutant-turtles--20160519-snap-story.html
p67
aVhttp://iwatchstuff.com/2016/03/fred-armisen-to-voice-krang-in-teenage-m.php
p68
aVhttp://iwatchstuff.com/2016/05/darth-by-darthwest-finally-combines-star.php
p69
aVhttp://iwatchstuff.com/2016/05/margot-robbie-to-play-winnie-the-pooh-au.php
p70
aVhttp://iwatchstuff.com/2016/05/arrested-development-will-definitely-hav.php
p71
aVhttp://iwatchstuff.com/2016/05/universal-to-build-robert-ludlum-cinemat.php
p72
aVhttp://iwatchstuff.com/2016/05/terry-gilliams-man-who-killed-don-quixot-1.php
p73
aVhttps://www.facebook.com/iwatchstuff
p74
aVhttps://twitter.com/IWatchStuff
p75
aVhttp://www.thesuperficial.com/?PageSpeed=noscript
p76
aVhttp://www.thesuperficial.com/photos/hot-bodies
p77
aVhttp://www.thesuperficial.com/photos/candid
p78
aVhttp://www.thesuperficial.com/photos/red-carpet
p79
aVhttp://www.thesuperficial.com/photos/sightings
p80
aVhttp://www.thesuperficial.com/photos/most-important-people
p81
aVhttp://www.thesuperficial.com/photos/crap-we-missed
p82
aVhttp://geekologie.com
p83
aVhttp://iwatchstuff.com
p84
aVhttp://www.facebook.com/becauseyoureugly
p85
aVhttp://www.twitter.com/thesuperficial
p86
aVhttp://www.thesuperficial.com/kanye-west-makes-die-antwoord-seem-like-downton-abbey-05-2016
p87
aVhttp://www.thesuperficial.com/demi-rose-tyga-05-2016
p88
aVhttp://www.thesuperficial.com/whitney-houston-hologram-leaked-video-christina-aguilera-05-2016
p89
aVhttp://www.thesuperficial.com/blake-lively-oakland-booty-racism-sir-mix-a-lot-05-2016
p90
aVhttp://www.thesuperficial.com/heidi-klum-topless-2-05-2016
p91
aVhttp://www.thesuperficial.com/jill-jessa-counting-on-scheduling-pregnancies-for-show-05-2016
p92
aVhttp://www.thesuperficial.com/bella-hadid-side-boob-vagina-flash-cannes-05-2016
p93
aVhttp://www.thesuperficial.com/daniel-craig-james-bond-100-million-turned-down-05-2016
p94
aVhttp://www.thesuperficial.com/the-crap-we-missed-friday-5-20-16-05-2016
p95
aVhttp://www.thesuperficial.com/author/cribecca
p96
aVhttp://www.thesuperficial.com/the-crap-we-missed-friday-5-20-16-05-2016#comments-sth
p97
aVhttp://www.thesuperficial.com/author/mjredmond
p98
aVhttp://www.thesuperficial.com/kanye-west-makes-die-antwoord-seem-like-downton-abbey-05-2016#comments-sth
p99
aVhttp://www.thesuperficial.com/demi-rose-tyga-05-2016#comments-sth
p100
aVhttp://www.thesuperficial.com/blake-lively-oakland-booty-racism-sir-mix-a-lot-05-2016#comments-sth
p101
aVhttp://www.thesuperficial.com/whitney-houston-hologram-leaked-video-christina-aguilera-05-2016#comments-sth
p102
aVhttp://www.thesuperficial.com/katy-perry-heidi-klum-amfar-gala-cannes-05-2016
p103
aVhttp://www.thesuperficial.com/katy-perry-heidi-klum-amfar-gala-cannes-05-2016#comments-sth
p104
aVhttp://www.laineygossip.com/Mariah-Carey-complains-she-wasnt-given-key-light-in-E-interview-while-promoting-Mariahs-World/43945
p105
aVhttp://dlisted.com/2016/05/19/how-does-dax-shepard-celebrate-a-pregnancy-scare-by-getting-a-secret-vasectomy/
p106
aVhttp://www.tmz.com/2016/05/20/david-hasselhoff-broke-pamela-bach-divorce/?adid=external_site_spinmedia
p107
aVhttp://www.newser.com/story/225403/former-miss-universe-trump-called-me-miss-piggy.html
p108
aVhttp://www.thesuperficial.com/page/2
p109
aVhttp://www.thesuperficial.com/the-crap-we-missed-thursday-5-19-16-05-2016
p110
aVhttp://www.thesuperficial.com/the-crap-we-missed-wednesday-5-18-16-05-2016
p111
aVhttp://www.thesuperficial.com/petra-nemcova-bikini-05-2016
p112
aVhttp://www.thesuperficial.com/frenchy-morgan-topless-gabi-grecko-05-2016
p113
aVhttp://www.thesuperficial.com/kim-kardashian-islam-iran-revolutionary-guard-instagram-05-2016
p114
aVhttp://www.thesuperficial.com/courtney-stodden-pregnant-05-2016
p115
aVhttp://www.thesuperficial.com/hilary-duff-bikini-katy-perry-boobs-breasts-12-2015
p116
aVhttp://www.thesuperficial.com/chrissy-teigen-topless-nipples-chelsea-handler-12-2015
p117
aVhttp://www.thesuperficial.com/jessica-simpson-nipples-boobs-miley-cyrus-naked-vagina-12-2015
p118
aVhttp://www.thesuperficial.com/miley-cyrus-topless-vagina-dead-petz-candice-swanepeol-bikini-ass-butt-12-2015
p119
aVhttp://www.thesuperficial.com/candice-swanepoel-bikini-butt-ass-12-2015
p120
aVhttp://www.thesuperficial.com/kerrie-mcmahon-topless-elsa-hosk-12-2015
p121
aVhttp://www.thesuperficial.com/abigial-ratchford-bikini-boobs-tits-rosie-mac-khaleesi-body-double-emilia-clarke-12-2015
p122
aVhttp://www.thesuperficial.com/heidi-klum-topless-charlotte-mckinney-nipples-12-2015
p123
aVhttp://www.tmz.com/2016/05/19/kesha-ben-folds-bob-dylan-tribute/?adid=external_site_spinmedia
p124
aVhttp://www.tmz.com?adid=external_site_spinmedia
p125
aVhttp://www.egotastic.com/2016/05/kate-hudson-bikinis-for-shape-magazine
p126
aVhttp://www.egotastic.com
p127
aVhttp://www.tmz.com/2016/05/19/beyonce-dad-mathew-knowles-reunion-photo/?adid=external_site_spinmedia
p128
aVhttp://www.egotastic.com/2016/05/joanna-krupa-bikini-nip-slip-other-fine-things-to-ogle-3
p129
aVhttp://www.tmz.com/2016/05/19/kylie-jenner-partynextdoor-together-video/?adid=external_site_spinmedia
p130
aVhttp://www.egotastic.com/2016/05/french-actress-gaia-weiss-side-baring-goodness-at-hands-of-stone-premiere
p131
aVhttp://www.spinmedia.com/#audience
p132
aVhttp://www.spinmedia.com/#locations
p133
aVhttp://www.spinmedia.com/privacy-policy/
p134
aVhttp://www.spinmedia.com/advertise/about-our-ads/
p135
aVhttp://spinmedia.com/copyright/
p136
aVhttp://www.spinmedia.com
p137
aVhttp://www.spin.com/
p138
aVhttp://www.vibe.com/
p139
aVhttp://www.celebuzz.com/
p140
aVhttp://www.thesuperficial.com/
p141
aVhttp://www.thefrisky.com/
p142
aVhttp://www.deathandtaxesmag.com/
p143
aVhttp://www.stereogum.com/
p144
aVhttp://www.idolator.com/
p145
aVhttp://www.buzznet.com/
p146
aVhttp://www.purevolume.com/
p147
aVhttp://www.gofugyourself.com/
p148
aVhttp://celebslam.celebuzz.com/
p149
aVhttp://hedonistica.com/movies/second-star-trek-beyond-trailer/
p150
aVhttp://hedonistica.com/science-and-technology/googles-modular-smartphone-project-ara/
p151
aVhttp://hedonistica.com/movies/everything-remix-force-awakens/
p152
aVhttp://hedonistica.com/tv/louis-c-k-jeopardy/
p153
aVhttp://hedonistica.com/comedy/honest-trailer-wreck-ralph/
p154
aVhttp://hedonistica.com/comedy/drive-2-uber-years/
p155
aVhttp://hedonistica.com/music/halo-theme-empty-church/
p156
aVhttp://hedonistica.com/autos-vehicles/car-scoring-017-safety-test/
p157
aVhttp://hedonistica.com/gaming/overwatch-animated-short-dragons/
p158
aVhttp://hedonistica.com/music/coldplay-upup/
p159
aVhttp://hedonistica.com/people/margot-robbie-australian-psycho/
p160
aVhttp://hedonistica.com/lifehack-and-education/far-can-go-limits-humanity/
p161
aVhttp://hedonistica.com/lifehack-and-education/unbeatable-game-60s-dr-nim/
p162
aVhttp://hedonistica.com/movies/accountant-teaser-trailer/
p163
aVhttp://hedonistica.com/internet-2/insanely-long-tsa-line-chicago-midway-airpot/
p164
aVhttp://hedonistica.com/movies/editor-think-feel/
p165
aVhttp://hedonistica.com/sports/stephen-currys-ultimate-career-mixtape/
p166
aVhttp://hedonistica.com/page/2/
p167
aVhttps://www.facebook.com/
p168
aVhttps://www.facebook.com/geekologie/likes?ref=page_internal
p169
aVhttps://www.facebook.com/geekologie/likes
p170
aVhttps://www.facebook.com/geekologie/info?ref=page_internal
p171
aVhttp://l.facebook.com/l.php?u=http%3A%2F%2Fwww.geekologie.com%2F&h=JAQGEZubL&s=1
p172
aVhttps://www.facebook.com/geekologie/photos_stream?ref=page_internal
p173
aVhttps://www.facebook.com/geekologie/videos?ref=page_internal
p174
aVhttps://www.facebook.com/geekologie/posts_to_page?ref=page_internal
p175
aVhttps://www.facebook.com/Trekonderoga/
p176
aVhttp://l.facebook.com/l.php?u=http%3A%2F%2Fwww.trekonderoga.com%2F&h=qAQGG4XWQ&enc=AZMGQJOBogfLlYCn2Xw1RTdHxyOWO9mCae9Z1sr7tyPGUENvaUKYaiW-qO9dDzoJpFZFyAxrVSAdsbel2ci23zKMs_AeyKYNBU8CJnVZdWHM7BxprwtLoPhvSBK9g2WH31f0Q7QlS6bF4IfoND_EbB95E-w9RWB_BbbMM9gd_winVGL_xK-w9RxshKanuqQ9BBxJBOM4mORDqVtyU5ioooGB&s=1
p177
aVhttps://www.facebook.com/r.php?fbpage_id=27290042596&r=111
p178
aVhttps://www.facebook.com/photo.php?fbid=1173015452730198&set=a.281655728532846.72674.100000652631537&type=3
p179
aVhttps://www.facebook.com/people/Clive-Cooper/100010263586313
p180
aVhttps://www.facebook.com/photo.php?fbid=254743784877739&set=o.27290042596&type=3
p181
aVhttp://l.facebook.com/l.php?u=http%3A%2F%2Fsparksflydesign.com%2F&h=1AQHlKopG&enc=AZNkE-YUXnyFcS0Vopbq5lkk4R2k46f_d-Unns8NqASDMFvVUNHSHMM0kPC3DO6JNPsvHejp6vLYijBWtCovGxBVssjW73SiGV6fCl2jgP0YnLYE31Gvxr4Cqhesk8QKWuG__bcwL6KWBYqu57hI3QTmlwtyGz_JBIkyWuiOEI8lcs38w6w6gi60D3Dct9mH6tZRxUy4Flcp9A9-0SZdlX24&s=1
p182
aVhttps://www.facebook.com/Nerdapproved/?ref=py_c
p183
aVhttps://www.facebook.com/Fashionablygeek/?ref=py_c
p184
aVhttps://www.facebook.com/GeekTyrantFans/?ref=py_c
p185
aVhttps://www.facebook.com/anticlown/
p186
aVhttps://www.facebook.com/becauseyoureugly/
p187
aVhttps://www.facebook.com/iwatchstuff/
p188
aVhttps://www.facebook.com/privacy/explanation
p189
aVhttps://www.facebook.com/policies?ref=pf
p190
aVhttps://www.facebook.com/campaign/landing.php?placement=pf_rhc_more&campaign_id=136808916455473&extra_1=auto
p191
aVhttps://www.facebook.com/help/568137493302217
p192
aVhttps://www.facebook.com/help/cookies?ref_type=sitefooter
p193
aVhttps://www.facebook.com/geekologie/?ref=nf
p194
aVhttps://www.facebook.com/geekologie/?fref=nf
p195
aVhttp://l.facebook.com/l.php?u=http%3A%2F%2Fgeekologie.com%2F2016%2F05%2Fwoman-loses-her-mind-over-talking-chewba.php&h=PAQEoKaE1&enc=AZOxJVKKuHqD-rVN3ZIdn1abFgEGP3fOG13XBlfPbIuk3Yu7dhlHDq8RqVG3tbxXQKJ0ephun5wjAAp21dWpVDLsxJnvRrh_nfhlpod-QVy04I3lyhptBOLKlqMxHdGCU5gWTyI37kjSt9TuIxvae_kE8pJty3GzuB1I6bH4ugJQCIMseSWqjBDyl0OP6i8_YYN6N3vkmuK1cEyJX-m48SVn&s=1
p196
aVhttp://l.facebook.com/l.php?u=http%3A%2F%2Fgeekologie.com%2F2016%2F05%2Fwoman-loses-her-mind-over-talking-chewba.php&h=ZAQE-sjtt&enc=AZMQK4dS36D1tcNgZqCfmYYekyEQBiS0Zg6AuX199ojkuRY9SwPHMQ39bALXkEqvoO2JDsLxiNGdwzJmLp3bG7fN4LcN95_8MRajFsW5tWYXZc2ThIsiSFq4EG5krTBqjVX0GovvJPRfa_lDDExhYVB8rV8M87xXjzVO-wx5uSs1vNEzdNSka_vYlp_G3-D6920I89uhDXXMjWWoljst3-kr&s=1
p197
aVhttp://l.facebook.com/l.php?u=http%3A%2F%2Fgeekologie.com%2F2016%2F05%2Fwoman-loses-her-mind-over-talking-chewba.php&h=JAQGEZubLAQHG3gK7lm8MMSHKzQghwRJbQsXFwBZBCalyLQ&enc=AZNdhqPGg4r-3QcGRHCZxm8YC3B_IZZNcwi_AuNzQIzCEj90kzpGHQkA_3WND5r_2irKz6g9A_MHx4t-VMnoD3CCauVqlo8VmR1lcDSWz9Vr3AZJAbYP9Drhpw7S0_E0m40KgJR9ehfhhUXb1gFVQVDxKm24V77KDKhit4WNkRIlA99EFIJj0n2uPuSfJf62E3cwMwhEkLWszDsBQpdUGGvL&s=1
p198
aVhttp://l.facebook.com/l.php?u=http%3A%2F%2Fgeekologie.com%2F2016%2F05%2Fdifficult-trying-to-walk-in-109-mile-per.php&h=_AQEZ1paW&enc=AZPO81i9TviWXnFFVc0PYaR-7vJUxsKuUft5ca5w1aElv4E2GLuOOGjWxx5GqmE2ggqIGpgZLJpsy-JOlTelzBmqNj5uEABn4Jm6dRcZyzSHog5eiFldla5WI5t-TaxWsFDYl5xXex-iXycP1YGtj-kvJCHi46KSDZ3JO-QHj4UY2nUM6tqM6dayNRnNbU4RlHqLAKHqxTZyPkIBNNHdSun4&s=1
p199
aVhttp://l.facebook.com/l.php?u=http%3A%2F%2Fgeekologie.com%2F2016%2F05%2Fdifficult-trying-to-walk-in-109-mile-per.php&h=AAQG0G7yp&enc=AZPQO-fA7FofnfR_dDjvNtO473kErf4lUtXEPP7ygoGKC1aMw7j7YxJmmR2vr58QUhEUtF6hcLeGYp5yZVrlr54fD8foLHwQ_VB-IyiE0J05Sx6J_MnJ1JtiB9dizc52g-hicoLj8w4P3rsUGaqXjUbYMmjXtoEt2zY0JSg62gjAokZG9C0sUBGB82uCpEeTwjxiCsvOb36J1knrR6OEDWsd&s=1
p200
aVhttp://l.facebook.com/l.php?u=http%3A%2F%2Fgeekologie.com%2F2016%2F05%2Fdifficult-trying-to-walk-in-109-mile-per.php&h=pAQEuyf4UAQFzfCOifPSYKwF4WYxuv7fkVQBVdMwUqQltvg&enc=AZN2dxDeomaQssLisAGbzBGbsq41RDD2NGmwnrFEY1dmZSwmhWX_2WO7-zKX5NIQIr8CiYKOj5wlTvvuO0NcWdK9fzfYGWdxn0MVO2hFNBwcbcK__AfDJ_AMabrmWiZ75gYD8Xz72CSc6CO2NgMGMYfktdLDywAFlhCVzrFLZTTbSdq7kOpeMHNUDQnfh765_2if3iLmXjqb6u4Uuv4nnz3_&s=1
p201
aVhttp://l.facebook.com/l.php?u=http%3A%2F%2Fgeekologie.com%2F2016%2F05%2Fcongratulations-man-sets-new-record-for.php&h=kAQGdx0O7&enc=AZM9uzPYa1qdJvUVYJo4oxQBbo37Yu1FUo-S4BQhYgxAGBo6uZ4mpHCe9EycPa9UnUjYSFTyuGp-pyMu-HEA6bxCllPlX8sZfSmhZxErA43AkgOqHheDPhxO_D4EDQqhrbLFLLwo3-4yCS6lCtUQGHr7bJd57AjvnzxmUYdFNVNXgQG4srrWD5HtqAC36PZuygtdnWV89x6iV7PqTFVt2wOh&s=1
p202
aVhttp://l.facebook.com/l.php?u=http%3A%2F%2Fgeekologie.com%2F2016%2F05%2Fcongratulations-man-sets-new-record-for.php&h=SAQE6sBCk&enc=AZObFDvaUiumZwtg-sQb66UPnu7CqcB8hz1W2zXLpM3_PNWuCOHVsSWuxGaYpzuEqkCyyLdhJL8_UoWnQMxlekYeb344THx_lrIzcU-NqG9IHWEXb9-tMt-bGfKpraHT7kRe5VS87XvYebysdJVhu235nAfSAOosooq4NteK2KWvyeBFewzppVwZH3gtPToOienzpDxwyRsPAGSC_uTHY-q5&s=1
p203
aVhttp://l.facebook.com/l.php?u=http%3A%2F%2Fgeekologie.com%2F2016%2F05%2Fcongratulations-man-sets-new-record-for.php&h=MAQE8UISUAQFAH_DyxR_aiDgB-w9Ijde6lFseRFPeQNiBcA&enc=AZMxi4lJ9qvT0wp3dsB61EUBRbwasNSYlXTBBtwOQio__gPemFoFuanEcB2RDVNdkvq8owUj4qSRHemm_AeCeAS4uTnNlpHCTNAs-dcK-YeKzQWZE4NCDu_e4b1dgawZCaYLGqKZg3yFb3qqebaVspLugbJveCEqlqql_aPGY7pmySUpoELssmONMScFKt4pSCJEaDkfSVNoX91sRcJIY6Uf&s=1
p204
aVhttp://l.facebook.com/l.php?u=http%3A%2F%2Fgeekologie.com%2F2016%2F05%2Fbeautiful-giant-octopus-kite-with-waving.php&h=xAQG3RpPf&enc=AZOORl_YyASjtqMTv7PWt9saTYgpQA-JLRfZAx-az519xrebeNrpU2cThaGcKwsC6nJC_45P8NdfbferC2M00X81B1OQqZ87R5ytNkAIRYVQY38oFqLq57-7MwzTag2CXzRO6Msvd2ARGXuX6-B5pZlCnaWuLnj36is3N6houX86d62JoJ0Y5uOLv1j_diZGpmqFM0HLkg3oY87V0bVDa8X1&s=1
p205
aVhttp://l.facebook.com/l.php?u=http%3A%2F%2Fgeekologie.com%2F2016%2F05%2Fbeautiful-giant-octopus-kite-with-waving.php&h=PAQEoKaE1&enc=AZPJ3qrItigodzzHoBQlWTpguQrYDKODen3nfFn9IDWjb3DR0S-TXcGyN2HZUIIJ6nrqy93b3bPinQp-ymJY6yucsKorsVRmYpuTfqA40H-05nBvCsS5dHdqiSrXeufYeeug4FiWk8V0Z6lp9jYHGWVNkNP_V7N5ldSumSVbrrKZbf6c4xundoudQ864pWY5GsdW8tpyb2PhrgOwnipMvi48&s=1
p206
aVhttp://l.facebook.com/l.php?u=http%3A%2F%2Fgeekologie.com%2F2016%2F05%2Fbeautiful-giant-octopus-kite-with-waving.php&h=UAQEfrbcMAQFi0WUwZVqnKlP0tsFRMNxRI__qLT8Kg6zTvw&enc=AZMVZ6uo1jp0IJKt6sX_nWZCvDtIJEksshTFIZ_avnhuJG71g9arZHSzZdmQ-9nA5TpXEJvjOAASbxr4kKcsbADDdDPmvClEPo_70uFGeq7Tau06FGkR7VqvLjwoUwUA1BRQ6Z4KXqkvgKzlvuzPBpGM1iu8oxxtkmZ03WTrw2HN5e7MDS_5ZNw8Abe4uspUQU39PSjSAZ3LAK8Qxy8awKIO&s=1
p207
aVhttp://l.facebook.com/l.php?u=http%3A%2F%2Fgeekologie.com%2F2016%2F05%2Fthe-end-nears-dogo-a-tiny-tank-robot-wit.php&h=iAQH5i-E2&enc=AZOMkkHU-FdoKJDT1rr4YZ3v99dWd30Fktli3GXuOz55kqk6MEUPtmv1txrukf4O8cPyPFUam0bx8W-KxL4fgpdRyuV1N0XCNpeI7KF5v12w2iWub5o2UOB5OS8mFp2bf4WGoy12pf4kcHdFoP6DYVf6o5pERPY6WmOuEntjbD0Q2DHMagTR_wN4CB8NqCUZ3Ic-w5CdUtv-0SlhNo2BX4s7&s=1
p208
aVhttp://l.facebook.com/l.php?u=http%3A%2F%2Fgeekologie.com%2F2016%2F05%2Fthe-end-nears-dogo-a-tiny-tank-robot-wit.php&h=SAQE6sBCk&enc=AZMK-mwMMbYPZwBSY-HjDpLOPKdTaezmT7gHqSeOOE6eOmvIQmOHygyTuJtMqifqQLAnCbHZWVH7GSWwTh_PRg02E2sJVBSbgiJ6K53woIod1dxEIjIxYn32R4oKRbQTqf3fwZDkhzkJzUwJOC2kv-IGxtnaIiSDEaKK6VZB-Dx9iwCDuPOVmzHxH9y7CoEBZQhON7UA14_fICvIUuznaZXg&s=1
p209
aVhttp://l.facebook.com/l.php?u=http%3A%2F%2Fgeekologie.com%2F2016%2F05%2Fthe-end-nears-dogo-a-tiny-tank-robot-wit.php&h=PAQEoKaE1AQHnJ464FLdWw3J5crdBmyoS4ttpPr5DTtcOjg&enc=AZO3in9OYPUCq3n23Sw82tLSe0yxVb34WR4ULdZcO0vVW0AvHSzkcU9NN-0vggo10Z3aQi06zroKMORwPDg5wZfKL-IdC5ENUL_AB9rgi4p0J2VQcefOtadtET_67I7ckMxc5CJcRBSxnl3G5K6BkbzedhGJRHrq2nNsNqDKppI4_O-XbnuHsmJLBnCpBclVYn0rLI3WTU2Hs-FKsyQclDOY&s=1
p210
aVhttp://l.facebook.com/l.php?u=http%3A%2F%2Fgeekologie.com%2F2016%2F05%2Fthere-goes-my-summer-body-reeses-releasi.php&h=0AQHDlxJv&enc=AZO1fhyYDkJGMlBUAh61yrEsZY3kmFWu-wwrs3G3TD-4TS7edhKoAJwb5P1opmQShMzr4VmXxJQaX-wVdD7nzDZvt_mIHtFx-9VnpYzZyGWaCWCg_M37919jtmhvTczsR6NuQrfkmU2-HmSFx1JfC3W2wnlZe4zLSqzeWpwHbaaeg4pnvqoATJhMQltFjYCoZbWiBigyJ6e1OTtpc6dOWfso&s=1
p211
aVhttp://l.facebook.com/l.php?u=http%3A%2F%2Fgeekologie.com%2F2016%2F05%2Fthere-goes-my-summer-body-reeses-releasi.php&h=jAQFWbm8X&enc=AZNTOBNUYL22Bb9grM0NOXWASlCFJOZSgbrPM3ay1hGq8K2i5fzjuiLUSNHtuQ3jQxApcYkpLDj2zEAULc20GcGdBf5aV1wn-QPoXekTkr6yQMdhbvNHBa1sBGiVVd_wzBVc7qeppKPy6JfxE_np8h4jO_1AWStkhr-CwlGd5BAfIycT1oZOiYGglCnKEVubbOSmXYUo4e7AZECEsaG1-KW7&s=1
p212
aVhttp://l.facebook.com/l.php?u=http%3A%2F%2Fgeekologie.com%2F2016%2F05%2Fthere-goes-my-summer-body-reeses-releasi.php&h=vAQEDZJPQAQFJ0DH7VlLGtqg4H7VxXPIZ_HrtE4TCFr0_7g&enc=AZPsD3_AdjZ8yYOFGMGGipukQjGdmISZH6Dd558LI2sbPtuh-PCkWvkcnuDXZNoUhagy4yWujU5RfqyWsKHZuiLN76SSwyvZRk9mMsaJ9nhcWMm88xnXO1Nxj30PAkHMySs6AJVRCnLHlvs2C32bIkyxJ6vvZGuQj0uGmUPH1263YvhcU_i40ZngtOeLSkJAN8jRpoeRwk9f2lph4d3Nvgzc&s=1
p213
aVhttp://l.facebook.com/l.php?u=http%3A%2F%2Fgeekologie.com%2F2016%2F05%2Fthats-gonna-hurt-what-a-zero-star-crash.php&h=IAQGucFC4&enc=AZN3NQDeYfVrFJALw9vnpaVn_5njqcKdWxgvNnRnpKCv0zwKiMgJoK590zSVIq4lMvJQjPg3unzfht2Np8yBTpJ5paHC3gbuN4cYrW5ehrEO1JaY0JDuFqEmzqOINnfPoPoXWn69BibcaSxUusJ61HEPaaTn6pI_UDRwijOfHJbxZx-d2IdGuJR3ajs4BC22tyG548JKZEXUPjME1cNjRzl2&s=1
p214
aVhttp://l.facebook.com/l.php?u=http%3A%2F%2Fgeekologie.com%2F2016%2F05%2Fthats-gonna-hurt-what-a-zero-star-crash.php&h=UAQEfrbcM&enc=AZPu8pR2jWudUisOYo_HeDToyNVsmG4aprqGJDwYWSnSaCtT--TGy3lc_x8rJ9RlWOfsMNh7RNbhN5AFd3gitKAhFAW7tlKoNkqZ7SFNvsm1XyBjP7_c5rFEMIjr_YLHpiJY2YwhdO2AmFFzLewWgcT-Ivd5Wk7XTSaLISdI_xeGyKSH6icqr8T4vZ63KOuTTiWZ7lfiBiT1nXZlbUBqbdot&s=1
p215
aVhttp://l.facebook.com/l.php?u=http%3A%2F%2Fgeekologie.com%2F2016%2F05%2Fthats-gonna-hurt-what-a-zero-star-crash.php&h=nAQEzCyo8AQFGLSm46aN1Z4vDKNjr4ZaXp2gUbvH3tcm_fQ&enc=AZNJOp8e7v_vyQ1waAVsyDRRP-OIAsPSTEE308hl-4nKYDRuBgGE14-S_ikAcfazjrQhzlPpXuv3-6ErhZSkV9gXulk3BBFZF96LIWxx_WnRgVCGr9VFXE160X1PX73QBUjVyWVSxvfkxfFj_cHRiVOqwxavHcirVLfM3c_ZJrnEbpkPxX1ZSexPFWEwY00yQl221d9TA8lqCJMhn6lIB58z&s=1
p216
aVhttp://l.facebook.com/l.php?u=http%3A%2F%2Fgeekologie.com%2F2016%2F05%2Fdoctors-perform-first-successful-penis-t-1.php&h=GAQGVy7M1&enc=AZMRx5ZFhyeqWLA7XFJjPlHTzH1zoz8XAMibqdrf1xH5TfTxsz__ovWBmjAaDqWCaS2nxtleTJas0jrf7P7EzNKn4rHc14gRtRlAw54z0TTPbbKq2sSIrIcikmkj6EHLLfq7bH0Ze-dLg7BmrzVtSoC3A-FQqDoMN6ireQ1akbMzqq5C8YExhTcowUck-sSXnnpnan7iormJX28Ig6RPVf3g&s=1
p217
aVhttp://l.facebook.com/l.php?u=http%3A%2F%2Fgeekologie.com%2F2016%2F05%2Fdoctors-perform-first-successful-penis-t-1.php&h=AAQG0G7yp&enc=AZMHLNPNeDQSnt-V2FIOzSOby80fqhW9S8SfCNuxub0bLEHeTcn-H2j6BGEmCy5cW0rsW0dz9xnYoxNMyqYUVJ43Azd_2WLr8zbOk2U0DHB6HpxzzVsOhAPE3E9OTuaKXiJLUhn_N1WAgaTKllT9NM1tI2cd3MjMQr_e2P4NMgRt5kRZxOE5JCVd2kyqRZFL68LQ0O8FZigZsg6Aw0ssgDGQ&s=1
p218
aVhttp://l.facebook.com/l.php?u=http%3A%2F%2Fgeekologie.com%2F2016%2F05%2Fdoctors-perform-first-successful-penis-t-1.php&h=ZAQE-sjttAQHz2Qd4wJjTIQpIw6BTP56W0AD1B3XtHY-ENA&enc=AZOqocAehSrSf1Ra-AQAuD0WydkmlN_3Nku0Fv7yqi3Vr-8S0iPgFYk5AvfEHOW3yO26WQIOruznvxV3bTM62IjBFPEtAxKC4r9lrHu5ibL7fIjfJ8Sn1m7GW1gckLNmX9Y1Jgq0yHWlCT8-ZQJFi9O6Z3JRnAhSJHzK6zrib5DL7myyQ1pS2q3KDYhdHGh8hG7rp1KXdPe6KQJxBdml3Ilk&s=1
p219
aVhttp://l.facebook.com/l.php?u=http%3A%2F%2Fgeekologie.com%2F2016%2F05%2Fmoose-in-alaska-playing-the-windchimes-w.php&h=FAQFpTG5j&enc=AZMOcRXxv-p9vH9Y434rabhvmes-rTBXvADVpzYpRBuD0gLOcIgyHkSNpTEPwdgHD6ta1LsNOhcgKqvrphrJ9xWf5Y7-HZLVl66hN0ymeFQqR6wAV350cDjcikuD3_ND2t9P2f-TYcvpsP9Tz4BKGnVzj_reaHa0HDrqJd7e1xbHryaB4_WLAMP8J7wkMk32H__LJfP3x2JWMgeV7PhrFQKA&s=1
p220
aVhttp://l.facebook.com/l.php?u=http%3A%2F%2Fgeekologie.com%2F2016%2F05%2Fmoose-in-alaska-playing-the-windchimes-w.php&h=KAQGhmaIy&enc=AZPBaNdhMqkk7qWsd4sqxJKhebJmvWZnVKcK8aaAk2JvpKjzN_NVR5AtdeCGTfh4coHPPufGnNl_fze9wxn5d6nUsKlyxaooV77cfhImmpUzuXiZatJCSac8ZjF9DAMIyE34-vnyn5TEb2hXh7XaJIpstNQv4AcMIltQTKrD-wcbYDDBZGy1fGLWXX0xoZZzvVHxC4MCQzm1p_Zg5C0Ju6d7&s=1
p221
aVhttp://l.facebook.com/l.php?u=http%3A%2F%2Fgeekologie.com%2F2016%2F05%2Fmoose-in-alaska-playing-the-windchimes-w.php&h=UAQEfrbcMAQGWho6QMbB-c6-nMbIJSqrXQCFMkDqCCBZeyA&enc=AZOIb9TKYT3wgktOzE2sQdRxnT3BBFX7Z2lNnskSTlHMZy3MFEebOWTErFE7i9ProgxaIuzPK2cFadSMsljcyRTGjjdI0yY0z_BupEVEj0RlwQpxm0p30zjxUzK1jABEbNyk2oTWIeDS0eYkhA5BUAViT53V-NKOtzfVGbInw8RhXOpS4lf-Qot65oHTyKbtTakuA6ktRpcZNhxcGnb6v1QV&s=1
p222
aVhttp://l.facebook.com/l.php?u=http%3A%2F%2Fgeekologie.com%2F2016%2F05%2Fwhat-bb-8-would-sound-like-if-he-ran-on.php&h=MAQE8UISU&enc=AZNkeyAFy_1D4BJcueWmtOfXk2ZYhm6nLvYgvdfzXy-fufhDxuZpl-W7XVfKGPIm5ce5zLBI3QdR0UYVq51OuSqNBMBoM4rZnFpxYph-7K3n_XjoLoYmwQh6uUsMy21JxT-SNJa26IdNG4eP-Xi7nk0aOfv3LD7VWmT8ZJVXGVRDGv7qfs8iVs4Asm5Lh0eo5vcNGEfbFh8GI_A2-E_IaJ3v&s=1
p223
aVhttp://l.facebook.com/l.php?u=http%3A%2F%2Fgeekologie.com%2F2016%2F05%2Fwhat-bb-8-would-sound-like-if-he-ran-on.php&h=bAQFoJiJj&enc=AZPifZ2AGKatysgH__rFmRigEFdNygzRFgBqCm4_GpEEUUqZvaIiHfO3J_WQZpaAs09mLHo6f4R2x5mCTmRsQvTa3SQwEe7R6iqE2E0RoqayG7wzxW1jr8kvwc5jJfzPYOa_60IBfDQC2l6KUZZG2nAuhWFtw9aVUOvlNE6hlEa8Nemu1iU9r08aITTgT4_r73YLsnGTT1QEruAmjJ1IPZGK&s=1
p224
aVhttp://l.facebook.com/l.php?u=http%3A%2F%2Fgeekologie.com%2F2016%2F05%2Fwhat-bb-8-would-sound-like-if-he-ran-on.php&h=sAQEyoUllAQGlJ22j5q_b3I3DtsCKzktupgg-5Dx__eoXEQ&enc=AZMloa8UwMP5HDAXiQcHCtJ7JQeZViRWkZMORxMnM2E4-AknhDlGrYRS1bzP9y3BOV1-qnb-n4clpaiZhvL-f0Nn3ZjZJPzEy9Ge12QhJepijs3tih2BHw9-N8fR6u7PKGN-tLqtALbDf2X2sV0znBgn7z6wPGfE8efUml2X03fJM66poLZZ6RAQBNBiVEhYTl6bPuF4uHbLmL8Km-3wC6KR&s=1
p225
aVhttp://l.facebook.com/l.php?u=http%3A%2F%2Fgeekologie.com%2F2016%2F05%2Fyouve-gone-too-far-way-way-too-far-licki.php&h=nAQEzCyo8&enc=AZNgwKf6xfUIz2sCg08Jav9LRYk3xEDTOK6oOmF5OBmbLB0RIrMEbWZXnaA0HqC75hRz6tT84ZYW3ygZUlVHBFk3vOsljFqMME0e1bBB0tY-Y5eV7eRHVXUTCrsE71ZdaRkWcaWw_3ul1BR2bg5G4NVKa1gwet8LpL0GHhLUI5rt46bwuCIXltwKShPkSyBGaSJMxHpjPRFef1mxfkOfd-K7&s=1
p226
aVhttp://l.facebook.com/l.php?u=http%3A%2F%2Fgeekologie.com%2F2016%2F05%2Fyouve-gone-too-far-way-way-too-far-licki.php&h=2AQFQCzM8&enc=AZNDEuAFFNZDpAaKybqeSI3IGw1PCTKxxz3lXrqvHWb9N8NNXoUTBwIOZRW_to5e9vEgaqVs3PHYqC2WnODFOXjg8V65KFGUCOI-Nq3RFoIYgZYr3BhCjYXPsN1YE7bzrzFh4MXBDDGREGtSLO00Hyj-qwne4on0h7PmmRhp9gIyR8ZwHlSM4btrLfNBihqzqmN0Pf2DCf-9O23816rZLtR1&s=1
p227
aVhttp://l.facebook.com/l.php?u=http%3A%2F%2Fgeekologie.com%2F2016%2F05%2Fyouve-gone-too-far-way-way-too-far-licki.php&h=bAQFoJiJjAQHzA7MBTVn5SOtugI1bPZ_EIv1VRM0pWuf8GA&enc=AZPShhrw2Khtsdp6lmwWkXyD1N_IKOkcG3jl3BTmETwl-iie07WvcuJnLQflFm6mzr7XqdXTXfD-fKlg746ENDQkIr997iIMhChCs88o8eDh-o-nj2472KYWuricYEP7HClYS28njJW9g0ByHwZI3VQfNHxH2HH1xDX4zTiMHS_r7TVmU_B_C4YufYWV646LxbItb7vCK_m6OGgbfo6olwKJ&s=1
p228
aVhttp://l.facebook.com/l.php?u=http%3A%2F%2Fgeekologie.com%2F2016%2F05%2Fno-regrets-new-tattoo-that-only-lasts-a.php&h=iAQH5i-E2&enc=AZNQ94HfvUTaoaVQeS54HWwHVJ-jdpX5fEUCbybKx74nd-eLw4pi1KJQoG-3rvJwO6sN-hbVbbLPwN-8be_SfazgOZbkVHGonVpIHEBTq5yIWypwXcCCj1u7erJJmqw0q6Cjpk9-XEov3aU_CcMCTYpycwX9iSIL0lXyM9LbFvctPLwuOPtNKq2H6JuovLRMShXpiSHclzFRapTHrmt9lXHG&s=1
p229
aVhttp://l.facebook.com/l.php?u=http%3A%2F%2Fgeekologie.com%2F2016%2F05%2Fno-regrets-new-tattoo-that-only-lasts-a.php&h=bAQFoJiJj&enc=AZO3P9IlSVS20IcYEfd1edPYKdtDQXP6kIo2wdXfKwwbLOFf7fXBtaA1EuBS93Ta0yzXEJdRck7HL-ol_NW2s_SyhyCWGwmRRrkdx2XKV5yriG26rqsCBy1s0K7vDZ4DQh5x50sUmrSn2ECWRt6wytePRmd20_1-OnI5-LVXlMfIDQ5YRQ_Hoe0mrlFWhWp-kUuiFcVMU2kpHru4U8I-xirf&s=1
p230
aVhttp://l.facebook.com/l.php?u=http%3A%2F%2Fgeekologie.com%2F2016%2F05%2Fno-regrets-new-tattoo-that-only-lasts-a.php&h=DAQHk2RX0AQHeim-c_qpw6aGFcAoXCjnwjCaBLCMycFl2Ng&enc=AZNJCK2fiJuqgKi2pCDyMpI-bAVuzTTt4DojUpxYE1qIPHcii0zJ2R_7HpPhU0JbQJeqVS0ugTtJrU8Ap60soQaoGH9DaCN79DTMglZBD41tQptIiqUT0BYaoAIAuazpcetamQkoEaFQYMM4Y_d8DkeiOsJOcsHBWaZjifpV3R-kqU2CA2Lf_uywfi0Ol2AqP3uJZcT9-fq4XE1t9maLsAH4&s=1
p231
aVhttp://l.facebook.com/l.php?u=http%3A%2F%2Fgeekologie.com%2F2016%2F05%2Fin-ear-aid-translates-foreign-languages.php&h=RAQGMAe6Q&enc=AZNWtpMMSnP9qI9dxmP75mYPPvbmT9qEtO9_lweqHwVsIDG-_ObC1zThZH-ANg1CfZqI_Eh2xuraQEhxBNCSItB9ocLiE5GebQAd66_x7qryAyZhGb-rETy26adXCmc3SC6RR1ZQvuK911NhGR6Cu2brVZe4pvuryLkbOk_XPKVIGRy0wPxlDUXzplgjana4rJTba6DeNbFyCLit-Vgp6CwT&s=1
p232
aVhttp://l.facebook.com/l.php?u=http%3A%2F%2Fgeekologie.com%2F2016%2F05%2Fin-ear-aid-translates-foreign-languages.php&h=jAQFWbm8X&enc=AZMEdArT45Zfa3c71KpGrZIZY9qSmxRbtJeXutQ6CkooB2sqvxeKp7jbTr7W88Mv3HR6_y3A8fF8BBXsnM3W8ANuNAL82yFNH6xmnCaBrW0-JCGZ_1dHDHRW9tbHTtvJHx_-NuIoaUoBGnQ3MOfFqDZQPo-K0qiLvel8gMKit0QZRBcSZhCgHJ3tPmhYocTYfy7Ea2szJqZsAYSAN8qe6Sti&s=1
p233
aVhttp://l.facebook.com/l.php?u=http%3A%2F%2Fgeekologie.com%2F2016%2F05%2Fin-ear-aid-translates-foreign-languages.php&h=uAQGWsgvbAQHFQWDMVy1DcvnfrF2Fii2COHo_0axSdejC6Q&enc=AZOj3580BrnyWSx_AWxhk-bzUrKVKdiemR6iQBsNIcfcVkPIQW9c5EekZa-86tJ2EUX0meJlnK0IVwF4Y5OK39-O4i-YBDUy2Avz4TE7CGMrWp7o7AWf2Btde9k8rOuSgcMs_6rtKItLAuCdREZEQ6btL0CBsi0BWSTGtEYLbBsXPhAllLKesYaqokmUG7_qCDcunNjmfzUPZu_kTTUszZhO&s=1
p234
aVhttp://l.facebook.com/l.php?u=http%3A%2F%2Fgeekologie.com%2F2016%2F05%2Fbrewery-develops-edible-six-pack-rings-t.php&h=4AQE9nq1g&enc=AZNLVpb7Qms1cLP0PUCALaHVZeEggYvE9eLBeFedBEsLPZDH-9L5jwOv0ucsg_EzNXVbLbZXUUYz2ISPs-F1b3EwqHXvcuMHtt4mvFMcATFQ9IRMmdhc2xC8deOE1rGu0ugmfTUHe2Tat1qC1IlDkf46b-0lV03qrZUWX6GAij_2x2Z8g6rnBnrResE5SwbNjk0ORzGE6aNJ4hoA3FJ5w1Vv&s=1
p235
aVhttp://l.facebook.com/l.php?u=http%3A%2F%2Fgeekologie.com%2F2016%2F05%2Fbrewery-develops-edible-six-pack-rings-t.php&h=uAQGWsgvb&enc=AZNXSnflY76NyjXosPj3ENZW2XoYGWVJaKmHOXIbBwSfQ-7Igs9-CpevCoI_OKTvlx_7wUC7EbiFGKzq9xvBFZRceS9mwflmwLWI9h0CQQfJtddbtIY9au9f8Kt8h7QpopsiGRchwLxByRD8nKzg08k_CAyE0OLhkJmmMjc6fb3av4OkXp75sZBl3Mahj7xPfKpCa1quqi5pvnCzxYxPsZl1&s=1
p236
aVhttp://l.facebook.com/l.php?u=http%3A%2F%2Fgeekologie.com%2F2016%2F05%2Fbrewery-develops-edible-six-pack-rings-t.php&h=KAQGhmaIyAQFPh-zY4bqUXqvKkEdqP1T5OvZfoeN1d9a1YQ&enc=AZO71R3ktX_wzhwM8mUxUKaPqdphAzUJBV0M9eKopwIA5CnXThlhbHXhDy_IRB5fWiXySgo1JFDkCDqtqUXa2TKX4TOVgy-JwyOlbloLLbleMm9s2zo_gBpVoSVe75BDjPIbD9M1jj0VNhp80VH2qPG2gaA6n2IsOKTRIJUZz85JryWih4Z-Nafl5llFHngSNTdGmDHXPVcCF5j9m4qWI9uI&s=1
p237
aVhttp://l.facebook.com/l.php?u=http%3A%2F%2Fgeekologie.com%2F2016%2F05%2Fdoodie-doodie-finally-a-smiling-poop-emo.php&h=NAQF2pr4V&enc=AZNlIQio2MHaweM-nY_ot1SashmJcTHWLh5agsnxgr0nbR9jm-jCV3YsRBW15_WEvqitHKQlMizQFNWa6TTVIUG8bDyhjh29YQuDo_LxdxISVw27wgohOfoHOnoRSbegoDOq51hx-06yl_4kGgCqFy199rBf65dORxbRcSnOO-HZYNaqW315ojAnxlCU8CFHcKRKEilMpjq4Fah1TmrjUX9I&s=1
p238
aVhttp://l.facebook.com/l.php?u=http%3A%2F%2Fgeekologie.com%2F2016%2F05%2Fdoodie-doodie-finally-a-smiling-poop-emo.php&h=AAQG0G7yp&enc=AZPqDgws4d-K-P7_-flFABy2hvIpD0hNkpuwOiISwEOCXMgWLccV7Ux0YzS7eTZvR4Lw0ugE7qWio4LILkTKpGOY40ARGTdJjVDgyL2fdaZsMOued5u8knxkX8kdiSRLiY5ZmEW3wBi7Zqb2T2IPB98bbJMo-qzsI9hRkRToI-NA2oGrOKkfs3W4syEmXoL5gn79viHuMf6f2SFPqiScjddp&s=1
p239
aVhttp://l.facebook.com/l.php?u=http%3A%2F%2Fgeekologie.com%2F2016%2F05%2Fdoodie-doodie-finally-a-smiling-poop-emo.php&h=eAQE8GD5AAQGyvbqN6j-xf686vGwg3seAWvnwUiyNh-EkeQ&enc=AZPry3cTOIM38fXOM7Tu7Eg8BWy_l2XuffhfaqGFQPqIzdiFf8JtcqIeygZMiJpEfT5cnOE8NvgB60bpnJhuDk1NQvnO46mnpFpJ0fF0c4L_AD-g53oUKLGoH7sUqlViwkjMo_l8iY3HR1Efgw3c9VAI4o_2WFYJKjbgWoJD3sLMqLT2Hl9ZKtTnaJlrFK_aX0x47D0wOrF6E5jLH0hhKDIJ&s=1
p240
aVhttp://l.facebook.com/l.php?u=http%3A%2F%2Fgeekologie.com%2F2016%2F05%2Fwhat-sorcery-is-this-amazing-playing-car.php&h=HAQEVBxao&enc=AZMdg-FtJJJjS5woLv_KPMpuzi0EMhu0JrnYqvd9lIGKLJieXfw9mKCSB_qoyLQqnIc7qNedrqR2Y1cTejVMJ2gMwpyMSv6MhdigPukRptJp1Hw94sCpGiY2cq6xKr22C9p7viIqefPnCp5f5eJSsBIVb-pVtadzOHC3Yzk4HFC-MRYvLm4o6yb3hSJV55-s4YRHd5YGh1RBLXPfEzBk8rWt&s=1
p241
aVhttp://l.facebook.com/l.php?u=http%3A%2F%2Fgeekologie.com%2F2016%2F05%2Fwhat-sorcery-is-this-amazing-playing-car.php&h=-AQH-sLB6&enc=AZNrf81NZLRVzi2ElmoC3Rdoy3YrD1AvVIkOYKEZ9Aw7BpqUEBTGanWhc3PC3l2gp57yHkGNgajPmbQYCMD880UVX25O2kCKgrWO9oOuwrOS4tGJFSkJF7Peje-0TyNV0YZhbLTvBfwpzoatm2jfKYfh4z7CS3aNxJjuHQ4DsLuMspNOZnfVj3KOeI_9BxPFcAiNFMUIxEgpD4W0QdIIKv7-&s=1
p242
aVhttp://l.facebook.com/l.php?u=http%3A%2F%2Fgeekologie.com%2F2016%2F05%2Fwhat-sorcery-is-this-amazing-playing-car.php&h=tAQEYAslZAQFp1uuRGwsr5bXudQfL-ZEvOh9lTXN_5bFF3A&enc=AZMdmgLRi22pECrYIfW2n4SCugqo6Dca5qVzfoDRqAwBeuiqT4dNwjyBIRReFXB8On_Kx45RM_e48U1d82H4UmhFlHUF29by0O4NL1ZYhf70H9q6fC3CP2iXmAzn6k-GA8vcIYf9QIfyIGw95RQuzn6ht3EHvxjR83Wnr6qirPquhVQr5E-XG1DriwtmPueNAXBEUuF68IBSrBCHUUm3MiNL&s=1
p243
aVhttp://l.facebook.com/l.php?u=http%3A%2F%2Fgeekologie.com%2F2016%2F05%2Fsure-why-not-a-star-trek-borg-cube-coffe.php&h=bAQFoJiJj&enc=AZMXDA0tps6NO1zYzU49ANQN3Y3evankcONsVy5yQPvMfTzmDSdMIY6I--hVWCDcMjPz5hAC9GsDm4STeeI8Lts3GJQWjKEu4HOstv6SD4Moo4VoLRNxcvC-S2j-FYLZTc8YbkepLatxATRMA9hzG6SI9TqcjgEA00t_MhrJrmtXnjfJX4qHlT9PSB_QX6pl9K-203oSDy5sVdMptsPSnOga&s=1
p244
aVhttp://l.facebook.com/l.php?u=http%3A%2F%2Fgeekologie.com%2F2016%2F05%2Fsure-why-not-a-star-trek-borg-cube-coffe.php&h=OAQFKRMdw&enc=AZP5oPj89VUYjQl32vi21hs9ou5weGQnbE4udGBqOm8b_OhaBd0rdfQIFReSDx4cuETq5v8R-EVSmeqtnZ3AsdeHyE2l2S_hHK7Aj5Y_ILPSAG2kiMEi4-S-R7ClPDTDa3XM_GxX-y7FWd0hVjcBmMALPjcvuH4mOOguRMsWIVtYRPBa_ycbspNR5CB-AhkSYyQ9fHLIVoqsNiUmIw4_7LAk&s=1
p245
aVhttp://l.facebook.com/l.php?u=http%3A%2F%2Fgeekologie.com%2F2016%2F05%2Fsure-why-not-a-star-trek-borg-cube-coffe.php&h=FAQFpTG5jAQFdgJKiY93cnhu1NSDOcBgf17zWI7xlIQuHrg&enc=AZOnG0WusYQP5acRbSE0Yy3QVKrERSD4HRKEPFRyuun6Hu4MKkaK1uiVkrc_IZ4VjT3rvr9bqpLriSydOY9eOsEOVQ0fPWZO3mHgusNf4UDAMX5lfu2OiQekfc1BUk38UOv9K50EsaJDTU4-ikbDVP_wvtHy-XawIazPRlhulax2CIJqDvG01pBy3w-pDIwFAaxuxfNxC9OdpZ_Th1rpWAd0&s=1
p246
aVhttp://l.facebook.com/l.php?u=http%3A%2F%2Fgeekologie.com%2F2016%2F05%2Fjoin-my-band-guitarist-plays-a-piece-of.php&h=tAQEYAslZ&enc=AZMSs1dpM4SiznsKVzPddMs_Kv0tH5VzfAlTqXCW735KIz9_2m6pWAM0Ck7qhgry7jCFxgDrhGZaKvhF7zJlWbw9-Q4u1aLxbA3cHaKuNINcpYHr6J3gslkATBOLHcqOoaOWENsB5Yl0UgXCaVouB0aXvbO2k-NYrkYe2-Tw-QLD47OfTM45Tq4FoBGbyOTKjDsMzFq47MpftFIAlxZKl86R&s=1
p247
aVhttp://l.facebook.com/l.php?u=http%3A%2F%2Fgeekologie.com%2F2016%2F05%2Fjoin-my-band-guitarist-plays-a-piece-of.php&h=KAQGhmaIy&enc=AZPZljnEcEuYJH6Az4qVcW6XtZvAlNVrlGI8-zhHnoAM4_O1o6tUZaQSplzG9NwkXlgu1c9Pte_6VLBdE-DIpiJk3iibLxs9c_2Q4m3p_CAAAEqp4n0732pnqtKNyx4SzeV8zvrEuHGmMTG2fJpm8w0-i8wQ3U4n6nEnBd_Yy4vTr9c6H3DMgp_xEESLEFttEyBPU9YSzReAw5Gqc0LkKGGW&s=1
p248
aVhttp://l.facebook.com/l.php?u=http%3A%2F%2Fgeekologie.com%2F2016%2F05%2Fjoin-my-band-guitarist-plays-a-piece-of.php&h=aAQFFBpoYAQGKs-tXU3MX6u-DLt-93IKrjYp8Vr9XJlA8nA&enc=AZOfocBYbBJb3S2mmetBV4A-EM3i4u47hN2xKyh8Fk3T2U0VvV9Ddc5j_qQAKhK60tWyj-p7N5TexJAj_kOGStOOWeokSPpA7AdrTRSTDvg4w0l9vYpzCmWS5KsGYIaXpTG2ONiYxxujAAsDDHe1UIO19df4uiieLI-ZsCqmacn03xQip2iy5Qxl3PgF0WsRBbAy7om2jWqGBpyWhY_87HVu&s=1
p249
aVhttp://l.facebook.com/l.php?u=http%3A%2F%2Fgeekologie.com%2F2016%2F05%2Fchemtrails-photos-capturing-planes-rainb.php&h=PAQEoKaE1&enc=AZNNlgnu7IUX5Xnc-2uuCN9RL-bDRLjE2lqe_bUFjU-yiljbEnA7frUuW7IVaIBarb1lO4QfFRADSMaJ5GjCyn2JPMUvZkD4u0ZYyYK4MOkJl9Igm2UMbPuDBdwC-ghwi7KXejvovzvmaSUR_RiWNjrKNSeyf_QD7RGmRUh80dKNxmSMsChxZAaVimE9snvhNKknr-uOnQ170fYkBVbUMce4&s=1
p250
aVhttp://l.facebook.com/l.php?u=http%3A%2F%2Fgeekologie.com%2F2016%2F05%2Fchemtrails-photos-capturing-planes-rainb.php&h=WAQGMvJRd&enc=AZMhQXoj1n7IssHdjr7Uh1uajlhXQ29sH3pz0XyFSW8fu0AFZuGZnZidNXnXOm3vvTRQFHKTGp2Jk5RLiIDSj5aQaGBh_KGWnmU1xrjjMM6U0mJzwZbssi3ioALc45JR085xR90qtZX1wskKhGpD2cl4pvx41Pe0xo7LqIh3_9AnB2AqH1MFqHsXNva-a8lQmcSETWji_VswBohz1ywjeH_6&s=1
p251
aVhttp://l.facebook.com/l.php?u=http%3A%2F%2Fgeekologie.com%2F2016%2F05%2Fchemtrails-photos-capturing-planes-rainb.php&h=yAQEanFpAAQEPNQVs14R0cOhv9opFbtFYiw9x9waTGtUjxw&enc=AZP3NvAg32AOybr80QiXxfJrjVb-XnNgnojqS_-NPE_tdti2T_VdEQUFb0Q4JkE0ziVSAJj5kN1dBHxhu0M1tlwTsIek98vgg9z_x0onUk_cD9Ow8dYOKeE52JskIDiTJOnhtcijI9fJbULqlosaRqy0OXgecXtD3OJKQbWfeNOntIPkq7wb6wSF4uX8Yx_jyE0QKZFaeUELMipSncgSzN5P&s=1
p252
aVhttp://l.facebook.com/l.php?u=http%3A%2F%2Fgeekologie.com%2F2016%2F05%2Fwho-will-win-12-carat-diamond-vs-hydraul.php&h=XAQHc6UXb&enc=AZOW0vNlTXCIol41gyABJbnb7h77bPr1-FbfNsrkbP2qO-eRr51DT8K6sQ5zGbZlwyf5V9AXMicK8KAw0q2XcyNiRQiPyQBmkPOu-4r2201q3JigD8oxnu6qAhK83ptkgYeOiOl1Vd6ttIUXonvdGwWkin8UZqmfoa4y5Wba8Ug9UMp1s73hugHa_-xPZnsN4PIyTLJVz8B16_LyaE4bG5WZ&s=1
p253
aVhttp://l.facebook.com/l.php?u=http%3A%2F%2Fgeekologie.com%2F2016%2F05%2Fwho-will-win-12-carat-diamond-vs-hydraul.php&h=IAQGucFC4&enc=AZPCVVrvL2YhYiVmJjIrJQWusOjYsPpifWLxv2e298yRVPh-ZpHHUl-kWPT-TuWJVxCNfHcD_ihFJmmp6suaFJF6XjDgCRlHXt2d6L1MG-4m7cJxCCmtBNgetp-JvDbxEEX4WrME502svAeadHg67sPCyV9HC-14ONl7lJ9Mi1cxCRBgpNq123GtOVRYS-MqXJIzUHtuO95LJ7qzfyHd_ton&s=1
p254
aVhttp://l.facebook.com/l.php?u=http%3A%2F%2Fgeekologie.com%2F2016%2F05%2Fwho-will-win-12-carat-diamond-vs-hydraul.php&h=7AQErGzcmAQGRPCUI-I8WAk0JhDt5Io75eHjld8zt0CnaHQ&enc=AZPjy2YMh1taBaul_YpU2i3QgoUIwmlIwzMRG8tyVDooAuZhTzzux2VAA02c81iGwhROGAlQbc5P603sou0dbJATD47B3aDy3dm29U8sXe75PdX0rqBVDowEjyC6Weo6ugxuwRT_Xu-Qe1xu7b72NdvBWU55r7ppbMCqlGAbHMGvytNMmM1Dpq2jtYY-jTG4ggq72xDVAQCMqKGOSyCowFf9&s=1
p255
aVhttps://twitter.com/signup
p256
aVhttps://support.twitter.com/articles/20170514
p257
aVhttps://pbs.twimg.com/profile_images/1891185028/geekologie-icon-180x180.png
p258
aVhttp://t.co/Tipmb01TtJ
p259
aVhttps://t.co/79qfcv9b0q
p260
aVhttps://t.co/B7aC4tpQOL
p261
aVhttps://t.co/33fyl4t9NX
p262
aVhttps://t.co/gfbpExSKKN
p263
aVhttps://t.co/sZmNG3BT5s
p264
aVhttps://t.co/Xaxbvd9WLM
p265
aVhttps://t.co/vsQ1RUdgWL
p266
aVhttps://t.co/OKnUfiCmSL
p267
aVhttps://t.co/duoTssBBOD
p268
aVhttps://t.co/l1yzTxmO9d
p269
aVhttps://t.co/jt5cnGAiiM
p270
aVhttps://t.co/UwN3KjMIKv
p271
aVhttps://t.co/LxHL5x0QkT
p272
aVhttps://t.co/tdupAXW9qn
p273
aVhttps://t.co/EUm0y4SyIH
p274
aVhttps://t.co/QCjmNKqe3v
p275
aVhttps://t.co/u2k4m0HKIY
p276
aVhttps://t.co/yqT2S2ez2B
p277
aVhttps://t.co/HXwrJAF6NE
p278
aVhttps://t.co/VpuvI2Oh69
p279
aVhttps://t.co/gR2osrVYME
p280
aVhttps://t.co/vZevCLpqlI
p281
aVhttps://t.co/GQPpJE8pSZ
p282
aVhttps://t.co/f1m6yjTjQo
p283
aVhttps://t.co/3qW9t9yV9X
p284
aVhttps://t.co/r5tsEjsHr3
p285
aVhttps://t.co/ZA3XEeioJi
p286
aVhttps://t.co/wPRihpuxiK
p287
aVhttps://t.co/zU4POttIRT
p288
aVhttps://t.co/MEDkOMLti0
p289
aVhttps://t.co/CIZgAvNJM7
p290
aVhttps://t.co/p1lqNlwUXK
p291
aVhttps://t.co/WklIDVV6m4
p292
aVhttps://t.co/45Q4gezlQL
p293
aVhttps://t.co/9YOehUpugg
p294
aVhttps://t.co/Sg2jn6uaCq
p295
aVhttps://t.co/NMH7YOFJly
p296
aVhttps://t.co/4VagtCh7LN
p297
aVhttps://t.co/SNjyuQdxx9
p298
aVhttps://t.co/CKGxRynnB2
p299
aVhttps://t.co/NgkWobzsXD
p300
aVhttps://t.co/gLdPPXBBCy
p301
aVhttps://t.co/z3SRmFkXwG
p302
aVhttps://t.co/QFzgf8TeTY
p303
aVhttps://t.co/XMM2VaB7Jn
p304
aVhttps://t.co/a0uKDgy5cd
p305
aVhttps://t.co/e0NXyyrHUG
p306
aVhttps://t.co/J5JUVDR6zM
p307
aVhttps://t.co/RmfY5leky9
p308
aVhttps://t.co/Pv4ldGN81v
p309
aVhttp://status.twitter.com
p310
aVhttp://support.twitter.com/forums/26810/entries/78525
p311
aVhttp://support.twitter.com/articles/14226-how-to-find-your-twitter-short-code-or-long-code
p312
aVhttps://www.google.co.uk/webhp?tab=Xw
p313
aVhttp://www.google.co.uk/imghp?hl=en-GB&tab=Xi
p314
aVhttps://maps.google.co.uk/maps?hl=en-GB&tab=Xl
p315
aVhttps://play.google.com/?hl=en-GB&tab=X8
p316
aVhttps://www.youtube.com/?tab=X1
p317
aVhttps://mail.google.com/mail/?tab=Xm
p318
aVhttps://drive.google.com/?tab=Xo
p319
aVhttps://www.google.com/calendar?tab=Xc
p320
aVhttps://www.google.co.uk/intl/en-GB/options/
p321
aVhttp://www.google.com/intl/en_uk/+/learnmore/forum/
p322
aVhttp://www.google.co.uk/history/optout?hl=en-GB
p323
aVhttps://www.google.com/support/profiles/?p=help_center&hl=en-GB
p324
aVhttps://accounts.google.com/ServiceLogin?service=oz&passive=1209600&continue=https://plus.google.com/%2Bgeekologie?gpsrc%3Dgplp0
p325
aVhttps://www.google.com/intl/en_uk/+/policy/
p326
aVhttps://www.google.com/intl/en_uk/+/policy/content.html
p327
aVhttps://www.google.com/intl/en_uk/help/terms_maps.html
p328
aVhttp://geekologie.com/2014/09/meanwhile-in-russia-spongebob-and-mickey.php
p329
aVhttps://www.youtube.com/watch?v=eR1GZd533EI&nohtml5=False
p330
aVhttp://geekologie.com/2014/08/star-wars-podracing-jetskiing-through-wa.php
p331
aVhttp://geekologie.com/2014/08/batman-spotted-w-custom-trike-on-japanes.php
p332
aVhttp://geekologie.com/2014/08/blackmail-material-dad-secretly-films-da.php
p333
aVhttp://geekologie.com/2014/08/goldeneye-007-remote-promixity-mine-belt.php
p334
aVhttp://geekologie.com/2014/08/good-ideas-date-rape-drug-detecting-fing.php
p335
aVhttp://geekologie.com/2014/08/lets-play-rescue-the-princess-3-d-printe.php
p336
aVhttp://geekologie.com/2014/08/couple-paint-sons-room-to-look-like-mine.php
p337
aVhttp://geekologie.com/2014/08/impressively-made-star-wars-episode-vii.php
p338
aVhttp://geekologie.com/2014/08/action-comics-1-sells-for-record-32-mill.php
p339
aVhttp://geekologie.com/2014/08/another-day-another-custom-star-wars-hom.php
p340
aVhttp://geekologie.com/2014/08/dad-adds-action-movie-special-effects-to.php
p341
aVhttp://facebook.com/geekologie
p342
aVhttp://geekologie.com/mt/mt-search.cgi?blog_id=1&tag=everybody%20needs%20a%20hobby&limit=20
p343
aVhttp://geekologie.com/mt/mt-search.cgi?blog_id=1&tag=hello%3F%20HELLO%3F&limit=20
p344
aVhttp://geekologie.com/mt/mt-search.cgi?blog_id=1&tag=instruments&limit=20
p345
aVhttp://geekologie.com/mt/mt-search.cgi?blog_id=1&tag=it%27s%20friday%20friday%20gotta%20get%20down%20on%20friday&limit=20
p346
aVhttp://geekologie.com/mt/mt-search.cgi?blog_id=1&tag=making%20beautiful%20music%20together&limit=20
p347
aVhttp://geekologie.com/mt/mt-search.cgi?blog_id=1&tag=move%20over%20and%20let%20me%20play%20you%20a%20little%20something%20i%20like%20to%20call%20old%20macdonald%20had%20a%20farm&limit=20
p348
aVhttp://geekologie.com/mt/mt-search.cgi?blog_id=1&tag=phones&limit=20
p349
aVhttp://geekologie.com/mt/mt-search.cgi?blog_id=1&tag=piano&limit=20
p350
aVhttp://geekologie.com/mt/mt-search.cgi?blog_id=1&tag=so%20that%27s%20what%20that%20sounds%20like&limit=20
p351
aVhttp://geekologie.com/mt/mt-search.cgi?blog_id=1&tag=sounds&limit=20
p352
aVhttp://geekologie.com/mt/mt-search.cgi?blog_id=1&tag=sure%20why%20not&limit=20
p353
aVhttp://disqus.com
p354
aVhttp://geekologie.com/2015/07/living-the-dream-tiny-owl-enjoying-his-b.php
p355
aVhttp://geekologie.com/2015/07/needs-more-brains-walking-dead-gets-an-o.php
p356
aVhttp://geekologie.com/mt/mt-search.cgi?blog_id=1&tag=8-bit&limit=20
p357
aVhttp://geekologie.com/mt/mt-search.cgi?blog_id=1&tag=good%20job&limit=20
p358
aVhttp://geekologie.com/mt/mt-search.cgi?blog_id=1&tag=i%20wish%20i%20could%20play%20instruments&limit=20
p359
aVhttp://geekologie.com/mt/mt-search.cgi?blog_id=1&tag=impressive&limit=20
p360
aVhttp://geekologie.com/mt/mt-search.cgi?blog_id=1&tag=multi-track&limit=20
p361
aVhttp://geekologie.com/mt/mt-search.cgi?blog_id=1&tag=NES&limit=20
p362
aVhttp://geekologie.com/mt/mt-search.cgi?blog_id=1&tag=nintendo&limit=20
p363
aVhttp://geekologie.com/mt/mt-search.cgi?blog_id=1&tag=sound%20effects&limit=20
p364
aVhttp://geekologie.com/mt/mt-search.cgi?blog_id=1&tag=super%20mario&limit=20
p365
aVhttp://geekologie.com/mt/mt-search.cgi?blog_id=1&tag=theme%20songs&limit=20
p366
aVhttp://geekologie.com/mt/mt-search.cgi?blog_id=1&tag=video%20games&limit=20
p367
aVhttp://geekologie.com/2015/04/bluegrass-version-of-the-game-of-thrones.php
p368
aVhttp://theawesomer.com/super-mario-bros-3-sound-fx/329916/
p369
aVhttp://geekologie.com/2015/11/hard-work-and-dedication-guy-sets-new-su.php
p370
aVhttp://geekologie.com/2014/06/game-of-thrones-theme-on-chiptunes-ninte.php
p371
aVhttp://geekologie.com/2014/04/mario-bros-themes-performed-on-48-wine-g.php
p372
aVhttp://geekologie.com/2016/03/i-see-what-you-did-there-aw-cream-soda-h.php
p373
aVhttp://geekologie.com/2016/03/teddy-bear-sex-toy-now-a-real-product-yo.php
p374
aVhttp://geekologie.com/mt/mt-search.cgi?blog_id=1&tag=getting%20creative&limit=20
p375
aVhttp://geekologie.com/mt/mt-search.cgi?blog_id=1&tag=guitar&limit=20
p376
aVhttp://geekologie.com/mt/mt-search.cgi?blog_id=1&tag=interesting&limit=20
p377
aVhttp://geekologie.com/mt/mt-search.cgi?blog_id=1&tag=moving%20on&limit=20
p378
aVhttp://geekologie.com/mt/mt-search.cgi?blog_id=1&tag=still%20thank%20god%20guitars%20do%20have%20strings%20amirite%3F&limit=20
p379
aVhttp://geekologie.com/mt/mt-search.cgi?blog_id=1&tag=we%27re%20getting%20the%20band%20back%20together&limit=20
p380
aVhttp://geekologie.com/mt/mt-search.cgi?blog_id=1&tag=we%27re%20on%20a%20mission%20from%20god&limit=20
p381
aVhttp://laughingsquid.com/musician-performs-an-incredible-solo-on-a-bass-guitar-without-any-strings/
p382
aVhttp://theatheistgirl.tumblr.com/
p383
aVhttp://qiwigames.com/
p384
aVhttp://geekologie.com/2015/09/guy-builds-himself-a-functional-game-boy.php
p385
aVhttp://geekologie.com/2016/03/rage-against-the-machines-killing-in-the.php
p386
aVhttp://geekologie.com/2016/02/star-wars-imperial-march-in-a-major-key.php
p387
a.