(lp0
Vhttps://www.google.com/intl/en/edu
p1
aVhttps://www.google.com/intx/en/work/apps/terms/dpa_terms.html
p2
aS'https://www.google.com'
p3
aVhttps://www.google.co.uk/setprefdomain?prefdom=US&sig=__TmWPF0Wh-naCaE3_o7b-1SpTP38%3D
p4
aVhttps://www.google.co.uk/setprefdomain?prefdom=US&sig=__c0TKwNa5ivBmqyYeWrGKDHS3X-o%3D
p5
aVhttps://www.google.co.uk/setprefdomain?prefdom=US&sig=__1yDxaSvLzAtIQC7Z8HJ_AyjOPFo%3D
p6
aVhttps://www.google.com/intl/en/about
p7
aVhttps://www.google.com/chrome/?hl=en
p8
aVhttps://www.google.com/webhp?hl=en
p9
aVhttps://www.google.com/policies/?hl=en
p10
aVhttps://www.chromeexperiments.com/globe
p11
aVhttps://www.google.com/about/careers/search
p12
aVhttps://www.google.com/doodles/
p13
aVhttps://www.google.org/index.html
p14
aVhttps://www.google.org/crisisresponse/index.html
p15
aVhttps://www.google.com/edu/
p16
aVhttps://www.google.com/about/careers/jobs
p17
aVhttps://www.google.com/about/careers/fields-of-work/
p18
aVhttps://www.google.com/about/careers/how-we-hire/
p19
aVhttps://www.google.co.uk/setprefdomain?prefdom=US&sig=__dM3f3guvSE2kyVOWYRXX0Di_xEI%3D
p20
aVhttps://www.google.com/intx/en-GB_uk/enterprise/apps/business/index.html?utm_source=google_products&utm_medium=et&utm_campaign=smb_apps
p21
aVhttps://www.google.co.uk/business/?gmbsrc=uk-en-GB-et-gs-z-gmb-s-z-h~pro-z-u&ppsrc=GMBB0&utm_campaign=uk-en-GB-et-gs-z-gmb-s-z-h~pro-z-u&utm_source=gmb&utm_medium=et
p22
aVhttps://www.icloud.com
p23
aVhttps://www.google.co.uk/imghp?hl=en-GB&tab=wi
p24
aVhttps://www.youtube.com/?hl=en-GB&gl=GB&tab=w1
p25
aVhttps://www.google.com/calendar?tab=wc
p26
aVhttps://www.google.co.uk/setprefdomain?prefdom=US&sig=___JxpiWuYfNz6DIr-A6JnwCGiDck%3D
p27
a.