(lp0
Vhttp://sploid.gizmodo.com/what-its-like-to-walk-against-100-mph-winds-1777148803
p1
aVhttp://geekologie.com/2016/05/physics-and-magic-amazing-marbles-and-ma.php
p2
aVhttp://geekologie.com/2015/12/two-skateboarders-trade-boards-midair-ov.php
p3
aVhttp://geekologie.com/2015/11/amaro-and-waldens-joyride-awesome-video.php
p4
aVhttp://geekologie.com/2016/05/congratulations-man-sets-new-record-for.php
p5
aVhttp://geekologie.com/2016/05/beautiful-giant-octopus-kite-with-waving.php
p6
aVhttp://geekologie.com/2016/05/the-end-nears-dogo-a-tiny-tank-robot-wit.php
p7
aVhttp://geekologie.com/2016/05/there-goes-my-summer-body-reeses-releasi.php
p8
aVhttp://geekologie.com/2016/05/thats-gonna-hurt-what-a-zero-star-crash.php
p9
aVhttp://geekologie.com/2016/05/doctors-perform-first-successful-penis-t-1.php
p10
aVhttp://feeds.feedburner.com/geekologie/iShm
p11
aVhttp://www.anticlown.com/privacy_policy.php
p12
aVhttp://www.anticlown.com/terms_of_use.php
p13
aVhttp://www.anticlown.com/removal.php
p14
aVhttps://avatars3.githubusercontent.com/u/11510721?v=3&s=400
p15
aVhttps://help.github.com/articles/why-are-my-contributions-not-showing-up-on-my-profile
p16
aVhttps://accounts.google.com/ServiceLogin?continue=https%3A%2F%2Fwww.youtube.com%2Fsignin%3Ffeature%3Dsign_in_promo%26hl%3Den-GB%26app%3Ddesktop%26next%3D%252F%26action_handle_signin%3Dtrue&hl=en-GB&service=youtube&passive=true&uilel=3
p17
aVhttps://plus.google.com/+youtube
p18
aVhttps://www.google.co.uk/intl/en-GB/policies/privacy/
p19
aVhttps://accounts.google.com/ServiceLogin?continue=https%3A%2F%2Fwww.youtube.com%2Fsignin%3Ffeature%3Dplaylist%26hl%3Den-GB%26app%3Ddesktop%26next%3D%252F%26action_handle_signin%3Dtrue&hl=en-GB&service=youtube&passive=true&uilel=3
p20
aVhttp://ZergNet.com
p21
aVhttp://www.zergnet.com/v/movies
p22
aVhttp://www.zergnet.com/v/gaming
p23
aVhttp://www.zergnet.com/v/celeb
p24
aVhttp://www.zergnet.com/v/sports
p25
aVhttp://www.zergnet.com/v/food
p26
aVhttp://www.zergnet.com/v/men
p27
aVhttps://www.zergnet.com/info
p28
aVhttps://www.zergnet.com/info?l=1
p29
aVhttp://www.zergnet.com/o/1039479/1/0/0
p30
aVhttps://myinfo.brighton.ac.uk/forgot
p31
aVhttps://tools.brighton.ac.uk/studentcentral/login.htm
p32
aVhttps://tools.brighton.ac.uk/studentcentral/about.htm
p33
aVhttps://staff.brighton.ac.uk/is/computing/Pages/Email/Email-for-students.aspx
p34
aVhttps://tools.brighton.ac.uk/studentcentral/feedback.htm
p35
aVhttps://en-us.help.blackboard.com/Learn/9.1_2014_04/Student/015_Browser_Support/Browser_Checker
p36
aVhttps://staff.brighton.ac.uk/is/learningandteaching/Pages/Copyright/Copyright.aspx
p37
aVhttp://www.brighton.ac.uk/siteinfo/cookies/index.aspx
p38
aVhttp://www.blackboard.com/Platforms/Learn/Resources/Accessibility.aspx
p39
aVhttp://webchat.freenode.net/?channels=hackerrank
p40
aVhttps://www.facebook.com/pages/justinguitarcom/157863920899685
p41
aVhttp://twitter.com/justinsandercoe
p42
aVhttp://www.youtube.com/justinsandercoe
p43
aVhttp://google.com/+justinguitar
p44
aVhttp://justinguitarcommunity.com/
p45
aVhttps://itunes.apple.com/gb/artist/justin-guitar/id502491353
p46
aVhttp://justinguitar.com/en/AA-004-PleaseDonate.php
p47
aVhttp://justinguitar.com/en/PR-000-Products.php
p48
aVhttp://www.tommyemmanuel.com/
p49
aVhttp://truefire.com/educators/tommy-emmanuel.html
p50
aVhttp://www.markknopfler.com
p51
aVhttp://www.brianmay.com
p52
aVhttp://www.martintaylor.com/
p53
aVhttp://martintaylor.com/
p54
aVhttp://www.martintaylorguitaracademy.com
p55
aVhttp://www.vai.com
p56
aVhttp://www.richard-bennett.com
p57
aVhttp://www.thedeliberatemusician.com
p58
aVhttp://www.jimcampilongo.com
p59
aVhttp://www.pierrebensusan.com
p60
aVhttp://www.pierrebensusan.com/store_viewallproductcatagory.asp?ID=168
p61
aVhttp://www.woz.org/
p62
aVhttp://www.wecameasstrangers.com
p63
aVhttps://www.google.co.uk/url?sa=t&rct=j&q=&esrc=s&source=web&cd=1&cad=rja&uact=8&ved=0CCIQFjAAahUKEwimkvWpyu7HAhUEbhQKHch2CSU&url=https%3A%2F%2Fitunes.apple.com%2Fgb%2Falbum%2Feyedom%2Fid1001332280&usg=AFQjCNF4kMyWTP5qjMbJhPgBRBhSIKYBaA&sig2=N7bGM53QrEIjVePv6LqO_Q
p64
aVhttps://itunes.apple.com/gb/album/recipe-for-adventure/id643476927
p65
aVhttps://itunes.apple.com/us/album/shattered-matter/id881668509?ign-mpt=uo=4
p66
aVhttp://www.thejustinguitarstore.com/collections/we-came-as-strangers
p67
aVhttps://itunes.apple.com/gb/album/eyedom/id1001332280?ls=1
p68
aVhttps://www.facebook.com/justinguitarofficial/photos/a.215208571831886.58879.157863920899685/1229939093692157/?type=3&theater
p69
aVhttp://www.kingsplace.co.uk/whats-on/course/course-acoustic-for-beginners-with-justin-sandercoe#.VzG_gj-hL2I
p70
aVhttp://daddario.com/
p71
aVhttp://www.aer-amps.com/
p72
aVhttp://www.thegigrig.com/
p73
aVhttp://www.strymon.net/
p74
aVhttps://www.guitar-pro.com/
p75
aVhttp://www.ratstands.com/
p76
aVhttp://www.custompedalboards.co.uk/
p77
aVhttp://www.justinguitar.com/en/BC-000-BeginnersCourse.php
p78
aVhttp://www.justinguitar.com/en/IM-000-IntermediateMethod.php
p79
aVhttp://www.justinguitar.com/en/BL-000-Blues.php
p80
aVhttp://www.justinguitar.com/en/JA-000-Jazz.php
p81
aVhttp://www.justinguitar.com/en/FO-000-Folk.php
p82
aVhttp://www.justinguitar.com/en/ET-000-EarTraining.php
p83
aVhttp://www.justinguitar.com/en/PC-000-Practice.php
p84
aVhttp://www.justinguitar.com/en/BS-000-BeginnersSongbook.php
p85
aVhttp://www.justinguitar.com/en/SB-000-GuitarSongBook.php
p86
aVhttp://www.justinguitar.com/en/ST-000-SongsTAB.php
p87
aVhttp://www.justinguitar.com/en/CS-000-ClassicGuitarSolos.php
p88
aVhttps://www.surveymonkey.com/s/requestasong
p89
aVhttp://www.justinguitar.com/en/AA-000-LessonIndex.php
p90
aVhttp://www.justinguitar.com/en/TR-000-Transcribing.php
p91
aVhttp://www.justinguitar.com/en/TE-000-Technique.php
p92
aVhttp://www.justinguitar.com/en/SC-000-Scales.php
p93
aVhttp://www.justinguitar.com/en/CH-000-Chords.php
p94
aVhttp://www.justinguitar.com/en/AR-000-Arpeggios.php
p95
aVhttp://www.justinguitar.com/en/ES-000-EssentialSkills.php
p96
aVhttp://www.justinguitar.com/en/QT-000-GuitarQuickTips.php
p97
aVhttp://www.justinguitar.com/en/RH-000-RhythmGuitar.php
p98
aVhttp://www.justinguitar.com/en/MA-000-Masterclasses.php
p99
aVhttp://www.justinguitar.com/en/RT-000-RecordingTechniques.php
p100
aVhttp://www.justinguitar.com/en/UK-000-UkuleleLessons.php
p101
aVhttp://justinguitar.com/en/ET-999-TheJustinguitarEarTrainer.php
p102
aVhttp://www.justinguitar.com/en/PR-102-BeginnersSongbook.php
p103
aVhttp://www.justinguitar.com/en/PR-010-PracticalMusicTheory.php
p104
aVhttp://www.justinguitar.com/en/PR-106-VintageSongbook.php
p105
aVhttp://www.justinguitar.com/en/AP-001-TimeTrainerMetronomeApp.php
p106
aVhttp://www.justinguitar.com/en/PR-007-StrummingTechniques1.php
p107
aVhttp://www.justinguitar.com/en/PR-040-JamBlues1.php
p108
aVhttp://www.justinguitar.com/en/PR-103-AcousticSongbook.php
p109
aVhttp://www.justinguitar.com/en/PR-004-SoloBlues1-3.php
p110
aVhttp://www.justinguitar.com/en/PR-099-ProductPackages.php
p111
aVhttp://wecameasstrangers.com/
p112
aVhttps://itunes.apple.com/gb/artist/we-came-as-strangers/id643476928
p113
aVhttps://www.facebook.com/WeCameAsStrangers
p114
aVhttps://www.youtube.com/user/wecameasstrangers
p115
aVhttp://www.justinguitar.com/en/AA-100-SpecialGuitarOffers.php
p116
aVhttp://www.justinguitar.com/en/LI-000-Links.php
p117
aVhttp://www.justinguitar.com/en/AA-004-PleaseDonate.php
p118
aVhttp://www.justinguitar.com/en/AA-030-Translate.php
p119
aVhttp://justinguitarcommunity.com/index.php?topic=35369.0
p120
aVhttp://www.amazon.co.uk/gp/registry/wishlist/288E8IV8INCQF
p121
aVhttps://www.youtube.com/user/JustinSandercoe
p122
aVhttps://www.youtube.com/user/JustinSandercoeSongs
p123
aVhttps://www.facebook.com/justinguitarofficial
p124
aVhttps://twitter.com/
p125
aVhttps://plus.google.com/+justinguitar
p126
aVhttp://www.justinguitar.com/en/AA-090-CustomerServices.php
p127
aVhttp://www.justinguitar.com/en/AA-Subscribe.php
p128
aVhttp://www.justinguitar.com/en/AA-003-ContactJustinGuitar.php
p129
aVhttp://www.justinguitar.com/en/AA-777-Tour.php
p130
aVhttp://www.justinguitar.com/en/AA-001-AboutJustin.php
p131
aVhttp://www.justinguitar.com/en/AA-096-JustinFAQ.php
p132
aVhttp://www.justinguitar.com/en/AA-099-PrivacyPolicy.php
p133
aVhttps://store.steampowered.com//login/?redir=%3Fcc%3Duk
p134
aVhttp://store.steampowered.com/
p135
aVhttp://store.steampowered.com/explore/
p136
aVhttp://store.steampowered.com/curators/
p137
aVhttp://steamcommunity.com/my/wishlist/
p138
aVhttp://store.steampowered.com/news/
p139
aVhttp://store.steampowered.com/stats/
p140
aVhttp://steamcommunity.com/
p141
aVhttp://steamcommunity.com/discussions/
p142
aVhttp://steamcommunity.com/workshop/
p143
aVhttp://steamcommunity.com/greenlight/
p144
aVhttp://steamcommunity.com/market/
p145
aVhttp://steamcommunity.com/?subsection=broadcasts
p146
aVhttps://help.steampowered.com/
p147
aVhttp://store.steampowered.com/privacy_agreement/
p148
aVhttp://www.valvesoftware.com/legal.htm
p149
aVhttp://store.steampowered.com/subscriber_agreement/
p150
aVhttp://store.steampowered.com/steam_refunds/
p151
aVhttp://store.steampowered.com/about/
p152
aVhttp://translation.steampowered.com
p153
aVhttp://store.steampowered.com/genre/Free%20to%20Play/?snr=1_4_4__125
p154
aVhttp://store.steampowered.com/genre/Early%20Access/?snr=1_4_4__125
p155
aVhttp://store.steampowered.com/tag/en/Action/?snr=1_4_4__125
p156
aVhttp://store.steampowered.com/tag/en/Adventure/?snr=1_4_4__125
p157
aVhttp://store.steampowered.com/tag/en/Casual/?snr=1_4_4__125
p158
aVhttp://store.steampowered.com/tag/en/Indie/?snr=1_4_4__125
p159
aVhttp://store.steampowered.com/tag/en/Massively%20Multiplayer/?snr=1_4_4__125
p160
aVhttp://store.steampowered.com/tag/en/Racing/?snr=1_4_4__125
p161
aVhttp://store.steampowered.com/tag/en/RPG/?snr=1_4_4__125
p162
aVhttp://store.steampowered.com/tag/en/Simulation/?snr=1_4_4__125
p163
aVhttp://store.steampowered.com/tag/en/Sports/?snr=1_4_4__125
p164
aVhttp://store.steampowered.com/tag/en/Strategy/?snr=1_4_4__125
p165
aVhttp://store.steampowered.com/cart/?snr=1_4_4__12
p166
aVhttp://store.steampowered.com/?snr=1_4_4__12
p167
aVhttp://store.steampowered.com/search/?snr=1_4_4__12#sort_by=_ASC&category1=998&page=1&tags=-1
p168
aVhttp://store.steampowered.com/genre/Free%20to%20Play/?snr=1_4_4__12
p169
aVhttp://store.steampowered.com/genre/Early%20Access/?snr=1_4_4__12
p170
aVhttp://store.steampowered.com/freestuff/demos/?snr=1_4_4__12
p171
aVhttp://store.steampowered.com/search/?term=&snr=1_4_4__12#sort_by=_ASC&vrsupport=101%2C102&page=1
p172
aVhttp://store.steampowered.com/tag/en/Action/?snr=1_4_4__12
p173
aVhttp://store.steampowered.com/tag/en/Adventure/?snr=1_4_4__12
p174
aVhttp://store.steampowered.com/tag/en/Casual/?snr=1_4_4__12
p175
aVhttp://store.steampowered.com/tag/en/Indie/?snr=1_4_4__12
p176
aVhttp://store.steampowered.com/tag/en/Massively%20Multiplayer/?snr=1_4_4__12
p177
aVhttp://store.steampowered.com/tag/en/Racing/?snr=1_4_4__12
p178
aVhttp://store.steampowered.com/tag/en/RPG/?snr=1_4_4__12
p179
aVhttp://store.steampowered.com/tag/en/Simulation/?snr=1_4_4__12
p180
aVhttp://store.steampowered.com/tag/en/Sports/?snr=1_4_4__12
p181
aVhttp://store.steampowered.com/tag/en/Strategy/?snr=1_4_4__12
p182
aVhttp://store.steampowered.com/tag/browse/?snr=1_4_4__12
p183
aVhttp://store.steampowered.com/search/?term=&sort_by=_ASC&os=mac&page=1&snr=1_4_4__12
p184
aVhttp://store.steampowered.com/search/?term=&sort_by=_ASC&os=linux&page=1&snr=1_4_4__12
p185
aVhttp://store.steampowered.com/search/?snr=1_4_4__12#sort_by=_ASC&category1=994&page=1
p186
aVhttp://store.steampowered.com/tag/en/Animation%20%26%20Modeling/?snr=1_4_4__12
p187
aVhttp://store.steampowered.com/tag/en/Audio%20Production/?snr=1_4_4__12
p188
aVhttp://store.steampowered.com/tag/en/Design%20%26%20Illustration/?snr=1_4_4__12
p189
aVhttp://store.steampowered.com/tag/en/Education/?snr=1_4_4__12
p190
aVhttp://store.steampowered.com/tag/en/Game%20Development/?snr=1_4_4__12
p191
aVhttp://store.steampowered.com/tag/en/Photo%20Editing/?snr=1_4_4__12
p192
aVhttp://store.steampowered.com/tag/en/Utilities/?snr=1_4_4__12
p193
aVhttp://store.steampowered.com/tag/en/Video%20Production/?snr=1_4_4__12
p194
aVhttp://store.steampowered.com/tag/en/Web%20Publishing/?snr=1_4_4__12
p195
aVhttp://store.steampowered.com/hardware?snr=1_4_4__12
p196
aVhttp://store.steampowered.com/app/353370?snr=1_4_4__12
p197
aVhttp://store.steampowered.com/app/353380?snr=1_4_4__12
p198
aVhttp://store.steampowered.com/hardware/?snr=1_4_4__12#Machines
p199
aVhttp://store.steampowered.com/app/358040?snr=1_4_4__12
p200
aVhttp://store.steampowered.com/search/?snr=1_4_4__12#sort_by=_ASC&category1=992&page=1&tags=-1
p201
aVhttp://store.steampowered.com/search/?snr=1_4_4__12#category1=992&sort_by=Released_DESC&page=1&tags=15339
p202
aVhttp://store.steampowered.com/search/?snr=1_4_4__12#category1=992&sort_by=Released_DESC&page=1&tags=4242
p203
aVhttp://store.steampowered.com/search/?snr=1_4_4__12#category1=992&sort_by=Released_DESC&page=1&tags=4700
p204
aVhttp://store.steampowered.com/search/?snr=1_4_4__12#category1=992&sort_by=Released_DESC&page=1&tags=4234
p205
aVhttp://store.steampowered.com/search/?snr=1_4_4__12#category1=992&sort_by=Released_DESC&page=1&tags=12057
p206
aVhttp://store.steampowered.com/search/?snr=1_4_4__12#category1=992&sort_by=Released_DESC&page=1&tags=19
p207
aVhttp://store.steampowered.com/search/?snr=1_4_4__12#category1=992&sort_by=Released_DESC&page=1&tags=4085
p208
aVhttp://store.steampowered.com/search/?snr=1_4_4__12#category1=992&sort_by=Released_DESC&page=1&tags=1719
p209
aVhttp://store.steampowered.com/search/?snr=1_4_4__12#category1=992&sort_by=Released_DESC&page=1&tags=5984
p210
aVhttp://store.steampowered.com/search/?snr=1_4_4__12#category1=992&sort_by=Released_DESC&page=1&tags=150626
p211
aVhttp://store.steampowered.com/search/?snr=1_4_4__12#category1=992&sort_by=Released_DESC&page=1&tags=1667
p212
aVhttp://store.steampowered.com/search/?snr=1_4_4__12#category1=992&sort_by=Released_DESC&page=1&tags=3942
p213
aVhttp://store.steampowered.com/search/?snr=1_4_4__12#category1=992&sort_by=Released_DESC&page=1&tags=4064
p214
aVhttp://store.steampowered.com/news/?snr=1_4_4__12
p215
aVhttp://store.steampowered.com/recommended/?snr=1_4_4__12
p216
aVhttp://store.steampowered.com/curators/?snr=1_4_4__12
p217
aVhttp://store.steampowered.com/updated/all/?snr=1_4_4__12
p218
aVhttp://store.steampowered.com/app/226860/?snr=1_4_4__40
p219
aVhttp://store.steampowered.com/app/262060/?snr=1_4_4__40_1
p220
aVhttp://store.steampowered.com/sale/wargame/?snr=1_4_4__40_2
p221
aVhttp://store.steampowered.com/search/?filter=popularnew&sort_by=Released_DESC&os=win
p222
aVhttp://store.steampowered.com/updated/all/
p223
aVhttp://store.steampowered.com/login/
p224
aVhttp://store.steampowered.com/join/
p225
aVhttps://store.steampowered.com/login/
p226
aVhttps://store.steampowered.com/join/
p227
aVhttp://store.steampowered.com/explore/startnew
p228
aVhttp://store.steampowered.com/hardware/?snr=1_4_4__132
p229
aVhttp://store.steampowered.com/curators/curatorscombinedrecommendations/
p230
aVhttp://store.steampowered.com/app/295690/?snr=1_4_4__tab-PopularNewReleases
p231
aVhttp://store.steampowered.com/app/270210/?snr=1_4_4__tab-PopularNewReleases
p232
aVhttp://store.steampowered.com/app/311010/?snr=1_4_4__tab-PopularNewReleases
p233
aVhttp://store.steampowered.com/app/401680/?snr=1_4_4__tab-PopularNewReleases
p234
aVhttp://store.steampowered.com/app/381120/?snr=1_4_4__tab-PopularNewReleases
p235
aVhttp://store.steampowered.com/app/476490/?snr=1_4_4__tab-PopularNewReleases
p236
aVhttp://store.steampowered.com/app/452420/?snr=1_4_4__tab-PopularNewReleases
p237
aVhttp://store.steampowered.com/app/223100/?snr=1_4_4__tab-PopularNewReleases
p238
aVhttp://store.steampowered.com/app/438680/?snr=1_4_4__tab-PopularNewReleases
p239
aVhttp://store.steampowered.com/app/443730/?snr=1_4_4__tab-PopularNewReleases
p240
aVhttp://store.steampowered.com/search/?sort_by=Released_DESC&os=win
p241
aVhttp://store.steampowered.com/app/364360/?snr=1_4_4__104
p242
aVhttp://store.steampowered.com/app/379720/?snr=1_4_4__104
p243
aVhttp://store.steampowered.com/app/346110/?snr=1_4_4__104
p244
aVhttp://store.steampowered.com/app/428690/?snr=1_4_4__104
p245
aVhttp://store.steampowered.com/app/292030/?snr=1_4_4__104
p246
aVhttp://store.steampowered.com/app/281990/?snr=1_4_4__104
p247
aVhttp://store.steampowered.com/app/435881/?snr=1_4_4__104
p248
aVhttp://store.steampowered.com/app/377160/?snr=1_4_4__104
p249
aVhttp://store.steampowered.com/app/730/?snr=1_4_4__104
p250
aVhttp://store.steampowered.com/sub/68479/?snr=1_4_4__104
p251
aVhttp://store.steampowered.com/search/?filter=topsellers&os=win
p252
aVhttp://store.steampowered.com/app/467850/?snr=1_4_4__tab-Upcoming
p253
aVhttp://store.steampowered.com/app/470130/?snr=1_4_4__tab-Upcoming
p254
aVhttp://store.steampowered.com/app/420060/?snr=1_4_4__tab-Upcoming
p255
aVhttp://store.steampowered.com/app/466710/?snr=1_4_4__tab-Upcoming
p256
aVhttp://store.steampowered.com/app/466020/?snr=1_4_4__tab-Upcoming
p257
aVhttp://store.steampowered.com/app/458750/?snr=1_4_4__tab-Upcoming
p258
aVhttp://store.steampowered.com/app/473660/?snr=1_4_4__tab-Upcoming
p259
aVhttp://store.steampowered.com/app/367340/?snr=1_4_4__tab-Upcoming
p260
aVhttp://store.steampowered.com/app/468820/?snr=1_4_4__tab-Upcoming
p261
aVhttp://store.steampowered.com/app/345480/?snr=1_4_4__tab-Upcoming
p262
aVhttp://store.steampowered.com/search/?filter=comingsoon&os=win
p263
aVhttp://store.steampowered.com/app/292030/?snr=1_4_4__tab-Specials
p264
aVhttp://store.steampowered.com/app/346110/?snr=1_4_4__tab-Specials
p265
aVhttp://store.steampowered.com/app/377160/?snr=1_4_4__tab-Specials
p266
aVhttp://store.steampowered.com/sub/68479/?snr=1_4_4__tab-Specials
p267
aVhttp://store.steampowered.com/app/262060/?snr=1_4_4__tab-Specials
p268
aVhttp://store.steampowered.com/sub/68475/?snr=1_4_4__tab-Specials
p269
aVhttp://store.steampowered.com/app/226860/?snr=1_4_4__tab-Specials
p270
aVhttp://store.steampowered.com/app/283640/?snr=1_4_4__tab-Specials
p271
aVhttp://store.steampowered.com/app/242640/?snr=1_4_4__tab-Specials
p272
aVhttp://store.steampowered.com/app/227300/?snr=1_4_4__tab-Specials
p273
aVhttp://store.steampowered.com/search/?specials=1&os=win
p274
aVhttp://store.steampowered.com/app/224740/?snr=1_4_4__43
p275
aVhttp://store.steampowered.com/app/292030/?snr=1_4_4__112
p276
aVhttp://store.steampowered.com/app/346110/?snr=1_4_4__112
p277
aVhttp://store.steampowered.com/app/377160/?snr=1_4_4__112
p278
aVhttp://store.steampowered.com/sub/68479/?snr=1_4_4__112
p279
aVhttp://store.steampowered.com/app/227300/?snr=1_4_4__127
p280
aVhttp://store.steampowered.com/app/242640/?snr=1_4_4__127
p281
aVhttp://store.steampowered.com/app/4000/?snr=1_4_4__127
p282
aVhttp://store.steampowered.com/app/105600/?snr=1_4_4__127
p283
aVhttp://store.steampowered.com/app/391540/?snr=1_4_4__127
p284
aVhttp://store.steampowered.com/app/270210/?snr=1_4_4__127
p285
aVhttp://store.steampowered.com/search/?filter=ut1&category1=998&os=
p286
aVhttp://store.steampowered.com/search/?filter=ut2&category1=998&os=
p287
aVhttp://www.valvesoftware.com
p288
aVhttp://www.valvesoftware.com/about.html
p289
aVhttp://www.valvesoftware.com/business/
p290
aVhttp://www.steampowered.com/steamworks/
p291
aVhttp://www.valvesoftware.com/jobs.html
p292
aVhttp://steamcommunity.com/greenlight
p293
aVhttp://www.facebook.com/Steam
p294
aVhttp://twitter.com/steam_games
p295
aVhttp://store.steampowered.com/explore/random/
p296
aVhttp://creativecommons.org/
p297
aVhttp://freedomdefined.org/
p298
aVhttp://wiki.creativecommons.org/Intergovernmental_Organizations#What_should_I_know_before_I_use_a_work_licensed_under_the_IGO_3.0_ported_licenses.3F
p299
aVhttp://wiki.creativecommons.org/License_Versions#Detailed_attribution_comparison_chart
p300
aVhttp://wiki.creativecommons.org/Best_practices_for_attribution#This_is_a_good_attribution_for_material_you_modified_slightly
p301
aVhttp://wiki.creativecommons.org/License_Versions#Modifications_and_adaptations_must_be_marked_as_such 
p302
aVhttps://creativecommons.org/compatiblelicenses
p303
aVhttp://wiki.creativecommons.org/FAQ#If_I_derive_or_adapt_material_offered_under_a_Creative_Commons_license.2C_which_CC_license.28s.29_can_I_use.3F
p304
aVhttp://wiki.creativecommons.org/Frequently_Asked_Questions#Does_my_use_violate_the_NonCommercial_clause_of_the_licenses.3F
p305
aVhttp://wiki.creativecommons.org/Frequently_Asked_Questions#When_is_my_use_considered_an_adaptation.3F
p306
aVhttp://wiki.creativecommons.org/License_Versions#Application_of_effective_technological_measures_by_users_of_CC-licensed_works_prohibited
p307
aVhttp://wiki.creativecommons.org/Frequently_Asked_Questions#Do_Creative_Commons_licenses_affect_exceptions_and_limitations_to_copyright.2C_such_as_fair_dealing_and_fair_use.3F
p308
aVhttp://wiki.creativecommons.org/Considerations_for_licensors_and_licensees
p309
aVhttp://wiki.creativecommons.org/FAQ
p310
aVhttps://donate.creativecommons.org/?utm_campaign=2015fund&utm_source=license_footer2015
p311
aVhttps://help.github.com/terms
p312
aVhttps://help.github.com/privacy
p313
aVhttps://github.com/blog/2164-introducing-unlimited-private-repositories
p314
aVhttps://help.github.com/articles/searching-github#types-of-searches
p315
aVhttps://help.github.com/articles/searching-repositories
p316
aVhttps://help.github.com/articles/searching-code
p317
aVhttps://help.github.com/articles/searching-issues
p318
aVhttps://help.github.com/articles/searching-users
p319
aVhttp://jazzy.junggle.net/support/
p320
aVhttp://profiles.google.com/jun66le
p321
aVhttp://creativecommons.org/licenses/by/3.0/
p322
aVhttps://twitter.com/share
p323
aVhttp://blog.freesound.org/
p324
aVhttp://www.pixelshell.com
p325
aVhttp://www.mtg.upf.edu/
p326
aVhttp://creativecommons.org/licenses/by-nc/3.0/
p327
aVhttp://code.google.com/p/libgdx/source/browse/trunk/tests/gdx-tests/src/com/badlogic/gdx/tests/YDownTest.java?spec=svn3482&r=3482
p328
aVhttp://www.badlogicgames.com/forum
p329
aVhttp://www.ziggysgames.com/
p330
aVhttp://www.omgware.com
p331
aVhttp://magory.net
p332
aVhttps://play.google.com/store/apps/details?id=com.bricknoid
p333
aVhttps://play.google.com/store/apps/details?id=com.bricknoidtwo
p334
aVhttp://www.colorizeit.com/styles/phpbb-30-css-styles/307.alpha.html#H6bc4e2aM1h5bl3fs3e|H61e2025M1l3cs00
p335
aVhttp://www.enchantedlearning.com/subjects/dinosaurs/
p336
aVhttp://www.phpbb.com/
p337
aVhttp://libgdx.badlogicgames.com/nightlies/docs/api/com/badlogic/gdx/utils/Disposable.html
p338
aVhttp://libgdx.badlogicgames.com/nightlies/docs/api/com/badlogic/gdx/utils/Pool.Poolable.html
p339
aVhttp://libgdx.badlogicgames.com/nightlies/docs/api/com/badlogic/gdx/utils/Pool.html
p340
aVhttp://libgdx.badlogicgames.com/nightlies/docs/api/com/badlogic/gdx/utils/Pools.html
p341
aVhttp://libgdx.badlogicgames.com/nightlies/docs/api/com/badlogic/gdx/utils/ReflectionPool.html
p342
aVhttp://github.com/blog
p343
aVhttp://developer.github.com
p344
aVhttp://github.com
p345
aVhttp://github.com/contact
p346
aVhttps://github.com/github/developer.github.com#licenses
p347
aVhttps://help.github.com/terms-of-service/
p348
aVhttps://help.github.com/privacy-policy/
p349
aVhttps://help.github.com/security/
p350
aVhttp://training.github.com/
p351
aVhttp://shop.github.com/
p352
aVhttps://try.github.io/levels/1/challenges/1
p353
aVhttps://help.github.com/articles/github-terms-of-service
p354
aVhttps://github.com/support
p355
aVhttps://www.github.com
p356
aVhttp://github.myshopify.com/products/water-bottle
p357
aVhttps://cloud.githubusercontent.com/assets/98681/15404364/f0919d2e-1db1-11e6-9f09-dc02cdc18f2e.png
p358
aVhttps://github.com/settings/profile
p359
aVhttps://help.github.com/articles/publicizing-or-hiding-your-private-contributions-on-your-profile/
p360
aVhttps://help.github.com/articles/importing-a-git-repository-using-the-command-line/
p361
aVhttps://cloud.githubusercontent.com/assets/519171/14989731/4205cd52-1127-11e6-925a-b385632044a9.png
p362
aVhttps://help.github.com/enterprise/admin/guides/installation/upgrading-the-github-enterprise-virtual-machine/
p363
aVhttps://github.com/github/backup-utils
p364
aVhttps://help.github.com/enterprise/admin/guides/migrations/resolving-migration-conflicts-or-setting-up-custom-mappings/#adding-custom-mappings
p365
aVhttps://help.github.com/enterprise/admin/guides/installation/administrative-shell-ssh-access/
p366
aVhttps://help.github.com/articles/creating-an-access-token-for-command-line-use/
p367
aVhttps://github.com/github/backup-utils/blob/master/README.md
p368
aVhttps://help.github.com/enterprise/admin/guides/migrations/resolving-migration-conflicts-or-setting-up-custom-mappings/
p369
aVhttps://camo.githubusercontent.com/4d5194f9803cbfe099ba6eed0c4c836a2e59cc48/68747470733a2f2f68656c702e6769746875622e636f6d2f6173736574732f696d616765732f656e74657270726973652f736974652d61646d696e2d73657474696e67732f6163636573732d6e65772d73657474696e67732e706e67
p370
aVhttps://cloud.githubusercontent.com/assets/519171/14751625/c30dc2d4-0898-11e6-98e0-ce162bb72d9a.png
p371
aVhttps://cloud.githubusercontent.com/assets/519171/14751631/ca5a5e58-0898-11e6-905c-ea844bda2b13.png
p372
aVhttps://services.github.com/
p373
aVhttps://help.github.com/enterprise/admin/guides/migrations/
p374
aVhttps://youtu.be/Vsyncm9cJuA
p375
aVhttps://github.com/blog/2110-migrate-your-code-with-the-github-importer
p376
aVhttps://cloud.githubusercontent.com/assets/7321362/15155025/7ef416b0-1695-11e6-876b-14c7686c2e69.jpg
p377
aVhttps://github.com/join
p378
aVhttps://github.com/pricing
p379
aVhttps://help.github.com/articles/changing-your-personal-account-s-billing-plan/
p380
aVhttps://help.github.com/articles/changing-your-organization-billing-plan/
p381
aVhttps://help.github.com/articles/adding-outside-collaborators-to-repositories-in-your-organization/
p382
aVhttps://help.github.com/articles/adding-a-billing-manager-to-your-organization/
p383
aVhttp://electron.atom.io
p384
aVhttps://github.com/electron/electron-api-demos
p385
aVhttp://electron.atom.io/blog/2016/05/11/electron-1-0
p386
aVhttps://nylas.com
p387
aVhttps://slack.com
p388
aVhttps://www.gitkraken.com
p389
aVhttps://www.wagonhq.com
p390
aVhttps://webtorrent.io/desktop
p391
aVhttps://www.jibo.com
p392
aVhttp://electron.atom.io/apps
p393
aVhttps://cloud.githubusercontent.com/assets/378023/15037731/af7e87e0-12d8-11e6-94e2-117c360d0ac9.png
p394
aVhttp://electron.atom.io/community
p395
aVhttp://electron.atom.io/docs/tutorial/quick-start
p396
aVhttps://github.com/benbalter/jekyll-seo-tag
p397
aVhttps://help.github.com/articles/sitemaps-for-github-pages/
p398
aVhttps://help.github.com/articles/search-engine-optimization-for-github-pages/
p399
aVhttps://cloud.githubusercontent.com/assets/634063/15132137/bd4d6f54-1656-11e6-9a05-37c1668cbd8b.png
p400
aVhttps://desktop.github.com/
p401
aVhttp://jekyllrb.com/docs/history/#v3-1-0
p402
aVhttps://github.com/contact?form%5Bsubject%5D=Jekyll%203.1.x
p403
aVhttps://github.com/new/import
p404
aVhttps://cloud.githubusercontent.com/assets/623/14927945/d2e73a52-0e09-11e6-9d9e-c50eff1de24c.gif
p405
aVhttps://git-lfs.github.com
p406
aVhttps://cloud.githubusercontent.com/assets/623/14990894/b623d152-1113-11e6-9ab7-d53707b5b514.png
p407
aVhttps://help.github.com/articles/versioning-large-files/
p408
aVhttps://github.com/blog/2100-github-pages-now-faster-and-simpler-with-jekyll-3-0
p409
aVhttps://help.github.com/articles/updating-your-markdown-processor-to-kramdown/
p410
aVhttp://kramdown.gettalong.org/
p411
aVhttps://github.com/blog/2115-upgrading-your-textile-posts-to-markdown
p412
aVhttps://github.com/blog/2136-a-look-behind-our-decision-to-standardize-on-a-single-markdown-engine-for-github-pages
p413
aVhttps://github.com/contact?form%5Bsubject%5D=GitHub%20Pages%20markup%2ddeprecation
p414
aVhttps://enterprise.github.com/support
p415
aVhttps://cloud.githubusercontent.com/assets/4154342/14900274/ae598606-0d44-11e6-9ccb-620275e5d511.png
p416
aVhttp://githubuniverse.com/satellite/
p417
aVhttp://githubuniverse.com/satellite/#scaling-github
p418
aVhttp://githubuniverse.com/satellite/#hubot
p419
aVhttp://githubuniverse.com/satellite/#electron
p420
aVhttp://githubuniverse.com/satellite/#every-company
p421
aVhttp://githubuniverse.com/satellite/#os-maintainers
p422
aVhttps://docs.google.com/forms/d/1cKmYf3ef-6jNdI-M4rZzZmSrBtk5HUwku9BK-QsUq9s/viewform?entry.1133091439&entry.1013899472&entry.279060200&entry.1100754702&entry.397324450&entry.364878310&entry.1603324867=Don%27t+know+what+to+ask?+Here+are+some+example+questions!+%0A-+Can+you+help+us+set+up+an+HA+environment+with+GHE?+%0A-+Can+you+help+us+use+gh-migrator+to+migrate+.com+repos+to+GitHub+Enterprise?+%0A-+Can+you+teach+my+team+the+GitHub+Flow+and+to+make+better+use+of+PRs?&entry.722738104&entry.446736858
p423
aVhttp://www.ticketbase.com/events/github-satellite
p424
aVhttps://enterprise.github.com/releases/2.6.0
p425
aVhttps://enterprise.github.com/releases/2.6.0/download
p426
aVhttps://help.github.com/enterprise/2.6/admin/guides/developer-workflow/creating-a-pre-receive-hook-environment
p427
aVhttps://help.github.com/enterprise/2.6/user/articles/creating-an-issue-template-for-your-repository
p428
aVhttps://help.github.com/enterprise/2.6/user/articles/creating-a-pull-request-template-for-your-repository
p429
aVhttps://help.github.com/enterprise/2.6/admin/articles/log-forwarding
p430
aVhttps://help.github.com/enterprise/2.6/user/articles/types-of-required-status-checks
p431
aVhttps://help.github.com/enterprise/2.6/admin/guides/user-management/suspending-and-unsuspending-users#creating-a-custom-message-for-suspended-users
p432
aVhttps://help.github.com/enterprise/2.6/admin/guides/user-management/creating-a-custom-sign-in-message
p433
aVhttps://help.github.com/enterprise/2.6/user/articles/about-pull-request-merge-squashing
p434
aVhttps://help.github.com/enterprise/2.6/user/articles/about-discussions-in-issues-and-pull-requests
p435
aVhttps://help.github.com/enterprise/2.6/user/articles/working-with-saved-replies
p436
aVhttps://help.github.com/enterprise/2.6/user/articles/about-writing-and-formatting-on-github/
p437
aVhttps://help.github.com/enterprise/2.6/user/articles/file-attachments-on-issues-and-pull-requests/
p438
aVhttps://enterprise.github.com/releases/2.6.0/notes
p439
aVhttps://help.github.com/enterprise/2.6/admin/guides/installation/enabling-automatic-update-checks/
p440
aVhttps://cloud.githubusercontent.com/assets/36873/14748468/b454c99c-086e-11e6-9292-726697c87eb2.png
p441
aVhttps://developer.github.com/changes/2016-04-18-new-webhook-actions-are-live/
p442
aVhttps://developer.github.com/webhooks/
p443
aVhttps://github.com/blog/1797-repository-metadata-and-plugin-support-for-github-pages
p444
aVhttps://github.com/jekyll/github-metadata
p445
aVhttps://help.github.com/articles/setting-up-your-github-pages-site-locally-with-jekyll/
p446
aVhttps://help.github.com/articles/repository-metadata-on-github-pages/
p447
aVhttps://cloud.githubusercontent.com/assets/4154342/14693830/7f96e332-0717-11e6-8df2-ba2a59ea975a.jpg
p448
aVhttps://www.linkedin.com/in/joshba
p449
aVhttps://www.linkedin.com/in/boboco
p450
aVhttps://www.linkedin.com/in/tomsugden
p451
aVhttps://www.linkedin.com/in/jerry-caupain-6577942
p452
aVhttps://cloud.githubusercontent.com/assets/4154342/14549190/a7db6ca4-0272-11e6-97ef-b1ab97073a29.png
p453
aVhttps://github.com/explore
p454
aVhttps://guides.github.com/introduction/flow/
p455
aVhttps://enterprise.github.com/
p456
aVhttps://github.com/integrations
p457
aVhttps://www.twitter.com/github
p458
aVhttps://developer.github.com/guides/managing-deploy-keys/#machine-users
p459
aVhttp://www.openstreetmap.org/copyright
p460
aVhttps://www.mapbox.com/tos/
p461
aVhttp://www.export.gov/safeharbor/
p462
aVhttps://bounty.github.com
p463
aVhttps://braintreepaymentsolutions.com
p464
aVhttp://en.wikipedia.org/wiki/Payment_Card_Industry_Data_Security_Standard
p465
aVhttps://status.github.com
p466
aVhttps://twitter.com/githubstatus
p467
aVhttps://help.github.com/articles/responsible-disclosure-of-security-vulnerabilities/
p468
aVhttps://en-gb.facebook.com/
p469
aVhttps://pl-pl.messenger.com/
p470
aVhttps://es-la.messenger.com/
p471
aVhttps://es-la.facebook.com/help/568137493302217
p472
aVhttps://fr-fr.messenger.com/
p473
aVhttps://fr-fr.facebook.com/help/568137493302217
p474
aVhttps://it-it.messenger.com/
p475
aVhttps://lt-lt.messenger.com/
p476
aVhttps://ro-ro.messenger.com/
p477
aVhttps://zh-cn.messenger.com/
p478
aVhttps://pt-br.messenger.com/
p479
aVhttps://de-de.messenger.com/
p480
aVhttps://ar-ar.messenger.com/
p481
aVhttp://l.facebook.com/l.php?u=http%3A%2F%2Fitunes.apple.com%2Fapp%2Fid454638411&h=YAQF_H04G&s=1
p482
aVhttp://l.facebook.com/l.php?u=http%3A%2F%2Fwww.windowsphone.com%2Fs%3Fappid%3D3219d30d-4a23-4f58-a91c-c44b04e6a0c7&h=EAQF1HCJc&s=1
p483
aVhttps://www.facebook.com/l.php?u=https%3A%2F%2Fmarket.android.com%2Fdetails%3Fid%3Dcom.facebook.orca&h=tAQEkoZh_&s=1
p484
aVhttps://www.messenger.com/
p485
aVhttps://www.messenger.com/features
p486
aVhttps://messengerplatform.fb.com
p487
aVhttps://market.android.com/details?id=com.facebook.orca
p488
aVhttps://itunes.apple.com/app/id454638411
p489
aVhttps://www.windowsphone.com/s?appid=3219d30d-4a23-4f58-a91c-c44b04e6a0c7
p490
aVhttps://www.messenger.com/features#hdcalls
p491
aVhttps://www.messenger.com/features#texts
p492
aVhttps://www.messenger.com/features#photos
p493
aVhttps://www.messenger.com/features#stickers
p494
aVhttps://www.messenger.com/features#voicemessages
p495
aVhttps://www.messenger.com/features#groups
p496
aVhttps://www.facebook.com/policy.php
p497
aVhttps://www.facebook.com/policies/?ref=pf
p498
aVhttps://www.facebook.com/vivek.hamirwasia
p499
aVhttps://www.facebook.com/elia
p500
aVhttps://www.facebook.com/?ref=logo
p501
aVhttp://l.facebook.com/l.php?u=http%3A%2F%2Fwww.aboutads.info%2Fchoices%2F&h=QAQF-XWmv&s=1
p502
aVhttp://l.facebook.com/l.php?u=http%3A%2F%2Fyouradchoices.ca%2F&h=sAQFAnjKN&s=1
p503
aVhttp://l.facebook.com/l.php?u=http%3A%2F%2Fwww.youronlinechoices.eu%2F&h=2AQG3cQUe&s=1
p504
aVhttps://pl-pl.facebook.com/help/568137493302217
p505
aVhttps://it-it.facebook.com/help/568137493302217
p506
aVhttps://lt-lt.facebook.com/help/568137493302217
p507
aVhttps://ro-ro.facebook.com/help/568137493302217
p508
aVhttps://zh-cn.facebook.com/help/568137493302217
p509
aVhttps://pt-br.facebook.com/help/568137493302217
p510
aVhttps://de-de.facebook.com/help/568137493302217
p511
aVhttps://ar-ar.facebook.com/help/568137493302217
p512
aVhttps://sso.godaddy.com/logout?realm=idp&app=www
p513
aVhttps://ar.godaddy.com
p514
aVhttps://au.godaddy.com
p515
aVhttps://be.godaddy.com
p516
aVhttps://be.godaddy.com/fr
p517
aVhttps://br.godaddy.com
p518
aVhttps://ca.godaddy.com
p519
aVhttps://ca.godaddy.com/fr
p520
aVhttps://cl.godaddy.com
p521
aVhttps://co.godaddy.com
p522
aVhttps://dk.godaddy.com
p523
aVhttps://de.godaddy.com
p524
aVhttps://es.godaddy.com
p525
aVhttps://www.godaddy.com/es
p526
aVhttps://fr.godaddy.com
p527
aVhttps://hk.godaddy.com/en
p528
aVhttps://in.godaddy.com
p529
aVhttps://id.godaddy.com
p530
aVhttps://ie.godaddy.com
p531
aVhttps://it.godaddy.com
p532
aVhttps://my.godaddy.com
p533
aVhttps://my.godaddy.com/ms
p534
aVhttps://mx.godaddy.com
p535
aVhttps://nl.godaddy.com
p536
aVhttps://nz.godaddy.com
p537
aVhttps://no.godaddy.com
p538
aVhttps://at.godaddy.com
p539
aVhttps://pk.godaddy.com
p540
aVhttps://pe.godaddy.com
p541
aVhttps://ph.godaddy.com
p542
aVhttps://ph.godaddy.com/fil
p543
aVhttps://pl.godaddy.com
p544
aVhttps://pt.godaddy.com
p545
aVhttps://ch.godaddy.com
p546
aVhttps://sg.godaddy.com
p547
aVhttps://za.godaddy.com
p548
aVhttps://ch.godaddy.com/fr
p549
aVhttps://fi.godaddy.com
p550
aVhttps://se.godaddy.com
p551
aVhttps://ch.godaddy.com/it
p552
aVhttps://tr.godaddy.com
p553
aVhttps://uk.godaddy.com
p554
aVhttps://ve.godaddy.com
p555
aVhttps://vn.godaddy.com
p556
aVhttps://gr.godaddy.com
p557
aVhttps://ru.godaddy.com
p558
aVhttps://ua.godaddy.com
p559
aVhttps://th.godaddy.com
p560
aVhttps://kr.godaddy.com
p561
aVhttps://tw.godaddy.com
p562
aVhttps://sg.godaddy.com/zh
p563
aVhttps://jp.godaddy.com
p564
aVhttps://hk.godaddy.com
p565
aVhttps://uk.godaddy.com/help
p566
aVhttps://sso.godaddy.com/account/reset?action=submit&app=www&realm=idp
p567
aVhttps://sso.godaddy.com/account/create?realm=idp&app=www&path=
p568
aVhttps://mya.godaddy.com
p569
aVhttps://account.godaddy.com
p570
aVhttps://account.godaddy.com/billing
p571
aVhttps://sso.godaddy.com/logout?realm=idp&app={{pc:loginapp}}&path=
p572
aVhttps://dcc.godaddy.com
p573
aVhttps://gateway.godaddy.com
p574
aVhttps://sso.godaddy.com
p575
aVhttps://email.godaddy.com
p576
aVhttps://cart.godaddy.com/basket.aspx
p577
aVhttps://uk.godaddy.com/domains/domain-name-search
p578
aVhttps://uk.godaddy.com/domains/bulk-domain-search.aspx
p579
aVhttps://uk.godaddy.com/tlds/gtld.aspx
p580
aVhttps://uk.godaddy.com/domains/domain-broker.aspx
p581
aVhttps://uk.godaddy.com/domains/personal-domains
p582
aVhttps://uk.godaddy.com/domains/domain-transfer.aspx
p583
aVhttps://uk.godaddy.com/domainaddon/private-registration.aspx
p584
aVhttps://who.godaddy.com
p585
aVhttps://uk.auctions.godaddy.com
p586
aVhttps://uk.auctions.godaddy.com/trpItemBuild.aspx
p587
aVhttps://uk.auctions.godaddy.com/trptools.aspx
p588
aVhttps://uk.auctions.godaddy.com/trppricing.aspx
p589
aVhttps://uk.godaddy.com/domains/discount-domains.aspx
p590
aVhttps://uk.godaddy.com/domainaddon/domain-backorders.aspx
p591
aVhttps://uk.godaddy.com/domains/cashparking
p592
aVhttps://uk.godaddy.com/websites/website-builder
p593
aVhttps://uk.godaddy.com/websites/online-store
p594
aVhttps://uk.godaddy.com/hosting/wordpress-hosting
p595
aVhttps://uk.godaddy.com/hosting/web-hosting
p596
aVhttps://uk.godaddy.com/hosting/dedicated-ip
p597
aVhttps://uk.godaddy.com/hosting/premium-dns
p598
aVhttps://uk.godaddy.com/pro/cloud-servers
p599
aVhttps://uk.godaddy.com/pro/cloud-applications
p600
aVhttps://uk.godaddy.com/pro/managed-vps
p601
aVhttps://uk.godaddy.com/pro/dedicated-server
p602
aVhttps://uk.godaddy.com/web-security/ssl-certificate
p603
aVhttps://uk.godaddy.com/web-security/malware-removal
p604
aVhttps://uk.godaddy.com/web-security/code-signing-certificate
p605
aVhttps://uk.godaddy.com/search-engine/search-engine-optimization
p606
aVhttps://uk.godaddy.com/online-marketing/email-marketing
p607
aVhttps://uk.godaddy.com/email/professional-email
p608
aVhttps://uk.godaddy.com/business/office-365
p609
aVhttps://uk.godaddy.com/reseller-program
p610
aVhttps://uk.godaddy.com/affiliates/affiliate-program.aspx
p611
aVhttps://uk.godaddy.com/coupons.aspx
p612
aVhttps://uk.godaddy.com/pro
p613
aVhttps://uk.godaddy.com/websites
p614
aVhttps://uk.godaddy.com/agreements/showdoc.aspx
p615
aVhttps://uk.godaddy.com/tlds/club-domain
p616
aVhttps://uk.godaddy.com/tlds/vip
p617
aVhttps://uk.godaddy.com/tlds/uk-domain
p618
aVhttps://uk.godaddy.com/tlds/family-domain
p619
aVhttps://uk.godaddy.com/tlds/co-uk
p620
aVhttps://uk.godaddy.com/websites/free-domain
p621
aVhttp://choosic.co/
p622
aVhttps://aboutus.godaddy.net
p623
aVhttps://uk.godaddy.com/contact-us.aspx
p624
aVhttps://newsroom.godaddy.net
p625
aVhttps://investors.godaddy.net
p626
aVhttps://uk.godaddy.com/legal-agreements.aspx
p627
aVhttps://img.godaddy.com/redirect.aspx?target=https%3A%2F%2Fgarage.godaddy.com
p628
aVhttps://img.godaddy.com/redirect.aspx?target=http%3A%2F%2Fblakesblog.com%2F
p629
aVhttps://supportcenter.godaddy.com/AbuseReport
p630
aVhttps://uk.godaddy.com/icann/domain_search.aspx
p631
aVhttps://uk.godaddy.com/redemption
p632
aVhttps://uk.godaddy.com/site-map.aspx
p633
aVhttps://uk.godaddy.com/catalog.aspx
p634
aVhttps://img.godaddy.com/redirect.aspx?ci=53549&target=https%3A%2F%2Fitunes.apple.com%2Fuk%2Fapp%2Fgodaddy.com-mobile-domain%2Fid333201813%3Fmt%3D8
p635
aVhttps://img.godaddy.com/redirect.aspx?target=https%3A%2F%2Fplay.google.com%2Fstore%2Fapps%2Fdetails%3Fid%3Dcom.godaddy.mobile.android
p636
aVhttps://img.godaddy.com/redirect.aspx?target=http%3A%2F%2Fwww.facebook.com%2Fgodaddy
p637
aVhttps://img.godaddy.com/redirect.aspx?target=http%3A%2F%2Fwww.twitter.com%2Fgodaddy
p638
aVhttps://img.godaddy.com/redirect.aspx?target=https%3A%2F%2Fplus.google.com%2F108306343581548568740
p639
aVhttps://img.godaddy.com/redirect.aspx?target=http%3A%2F%2Fwww.youtube.com%2Fsubscription_center%3Fadd_user%3Dgodaddy
p640
aVhttps://uk.godaddy.com/agreements/showdoc.aspx?pageid=UTOS&app_hdr=0
p641
aVhttp://preferences-mgr.truste.com/?pid=godaddy01&aid=godaddy01&type=godaddy
p642
aVhttps://twitter.com/signup
p643
aVhttps://support.twitter.com/articles/20170514
p644
aVhttps://pbs.twimg.com/profile_images/611974731672084480/oh1wtUsi.jpg
p645
aVhttp://t.co/RgCTbXTCnB
p646
aVhttps://t.co/27Y5iXpzyw
p647
aVhttps://t.co/ZyfUU7KpwV
p648
aVhttps://t.co/xEFmEyjJnz
p649
aVhttps://t.co/3b2l6Efoh7
p650
aVhttps://t.co/Ons8Etjw3c
p651
aVhttps://t.co/ZGeiwhNODq
p652
aVhttps://t.co/BV7SiEwELA
p653
aVhttps://t.co/mxcJSEf3XH
p654
aVhttps://t.co/1j5U2AXzOy
p655
aVhttps://t.co/aSftwe2W9A
p656
aVhttps://t.co/ng2Zs28trV
p657
aVhttps://t.co/UM5qPum2c0
p658
aVhttp://t.co/XRElbfTdh8
p659
aVhttp://t.co/ZXYZJAnvS6
p660
aVhttp://t.co/PNKrM4mjHI
p661
aVhttps://t.co/f2ylP0lpKz
p662
aVhttp://t.co/vTtgvw5sgG
p663
aVhttp://t.co/iuWtk3eGcL
p664
aVhttps://t.co/4isqx701dI
p665
aVhttp://t.co/wrPNYyM29T
p666
aVhttp://t.co/KdFyVd0591
p667
aVhttp://t.co/kKRRXCNWos
p668
aVhttp://t.co/6EEt1u5M7g
p669
aVhttp://t.co/TXClUNZBCV
p670
aVhttp://t.co/iwQcTb6cRb
p671
aVhttp://t.co/i0ht5mTuF2
p672
aVhttp://t.co/MebC6qJanY
p673
aVhttp://t.co/q6unlOFVvh
p674
aVhttps://t.co/hMQJbjbPgv
p675
aVhttp://t.co/G90dua1337
p676
aVhttp://t.co/jfsVIYELNA
p677
aVhttp://t.co/F4VULPH8ww
p678
aVhttp://t.co/85mGRZf79s
p679
aVhttp://t.co/OjoACsrMdn
p680
aVhttp://t.co/ohabeZXplk
p681
aVhttp://t.co/fhsZA97IK0
p682
aVhttp://t.co/LgtIwX6tE1
p683
aVhttp://t.co/FuYBzGY5UR
p684
aVhttp://t.co/GiqqxrCbSb
p685
aVhttp://t.co/KZ0Zht7u6N
p686
aVhttp://t.co/FhtTI1A6vw
p687
aVhttp://t.co/Zu3fxabY0p
p688
aVhttp://status.twitter.com
p689
aVhttp://support.twitter.com/forums/26810/entries/78525
p690
aVhttp://support.twitter.com/articles/14226-how-to-find-your-twitter-short-code-or-long-code
p691
aVhttps://avatars2.githubusercontent.com/u/48384?v=3&s=400
p692
aVhttp://dalibornasevic.com
p693
aVhttp://dalibornasevic.com/
p694
aVhttps://help.github.com/articles/which-remote-url-should-i-use
p695
aVhttps://camo.githubusercontent.com/e1be727461dbb954fe2f78335b9bc2106c5a3667/68747470733a2f2f7472617669732d63692e6f72672f64616c69626f722f64616c69626f726e6173657669632e636f6d2e706e67
p696
aVhttp://github.com/dalibor/dalibornasevic.com
p697
aVhttp://rtyley.github.io/bfg-repo-cleaner/
p698
aVhttp://rtyley.github.io/bfg-repo-cleaner/#examples
p699
aVhttp://s16.sitemeter.com/stats.asp?site=s16anticlown
p700
aVhttp://twitter.com/#!/anticlown
p701
aVhttps://www.facebook.com/anticlown
p702
aVhttp://iwatchstuff.com/2016/05/first-look-at-charlize-theron-in-fast-8.php
p703
aVhttp://iwatchstuff.com/2016/05/skyler-white-gets-in-on-wall-street-in-t.php
p704
aVhttp://iwatchstuff.com/2016/05/watch-a-hanna-barbera-style-nice-guys-an.php
p705
aVhttps://www.youtube.com/watch?v=I7z8yQGRUzM
p706
aVhttp://iwatchstuff.com/2016/05/kristen-stewart-gets-bro-haunted-in-pers.php
p707
aVhttp://iwatchstuff.com/2016/05/heres-everything-abc-is-hoping-youll-sta.php
p708
aVhttp://iwatchstuff.com/2016/05/watch-the-80s-commercial-for-xaviers-sch.php
p709
aVhttp://iwatchstuff.com/2016/05/everybody-loves-brain-men-now-brad-garre.php
p710
aVhttp://www.latimes.com/entertainment/herocomplex/la-et-hc-krang-teenage-mutant-turtles--20160519-snap-story.html
p711
aVhttp://iwatchstuff.com/2016/03/fred-armisen-to-voice-krang-in-teenage-m.php
p712
aVhttp://iwatchstuff.com/2016/05/darth-by-darthwest-finally-combines-star.php
p713
aVhttp://iwatchstuff.com/2016/05/margot-robbie-to-play-winnie-the-pooh-au.php
p714
aVhttp://iwatchstuff.com/2016/05/arrested-development-will-definitely-hav.php
p715
aVhttp://iwatchstuff.com/2016/05/universal-to-build-robert-ludlum-cinemat.php
p716
aVhttp://iwatchstuff.com/2016/05/terry-gilliams-man-who-killed-don-quixot-1.php
p717
aVhttps://www.facebook.com/iwatchstuff
p718
aVhttps://twitter.com/IWatchStuff
p719
aVhttp://www.thesuperficial.com/?PageSpeed=noscript
p720
aVhttp://www.thesuperficial.com/photos/hot-bodies
p721
aVhttp://www.thesuperficial.com/photos/candid
p722
aVhttp://www.thesuperficial.com/photos/red-carpet
p723
aVhttp://www.thesuperficial.com/photos/sightings
p724
aVhttp://www.thesuperficial.com/photos/most-important-people
p725
aVhttp://www.thesuperficial.com/photos/crap-we-missed
p726
aVhttp://geekologie.com
p727
aVhttp://iwatchstuff.com
p728
aVhttp://www.facebook.com/becauseyoureugly
p729
aVhttp://www.twitter.com/thesuperficial
p730
aVhttp://www.thesuperficial.com/kanye-west-makes-die-antwoord-seem-like-downton-abbey-05-2016
p731
aVhttp://www.thesuperficial.com/demi-rose-tyga-05-2016
p732
aVhttp://www.thesuperficial.com/whitney-houston-hologram-leaked-video-christina-aguilera-05-2016
p733
aVhttp://www.thesuperficial.com/blake-lively-oakland-booty-racism-sir-mix-a-lot-05-2016
p734
aVhttp://www.thesuperficial.com/heidi-klum-topless-2-05-2016
p735
aVhttp://www.thesuperficial.com/jill-jessa-counting-on-scheduling-pregnancies-for-show-05-2016
p736
aVhttp://www.thesuperficial.com/bella-hadid-side-boob-vagina-flash-cannes-05-2016
p737
aVhttp://www.thesuperficial.com/daniel-craig-james-bond-100-million-turned-down-05-2016
p738
aVhttp://www.thesuperficial.com/the-crap-we-missed-friday-5-20-16-05-2016
p739
aVhttp://www.thesuperficial.com/author/cribecca
p740
aVhttp://www.thesuperficial.com/the-crap-we-missed-friday-5-20-16-05-2016#comments-sth
p741
aVhttp://www.thesuperficial.com/author/mjredmond
p742
aVhttp://www.thesuperficial.com/kanye-west-makes-die-antwoord-seem-like-downton-abbey-05-2016#comments-sth
p743
aVhttp://www.thesuperficial.com/demi-rose-tyga-05-2016#comments-sth
p744
aVhttp://www.thesuperficial.com/blake-lively-oakland-booty-racism-sir-mix-a-lot-05-2016#comments-sth
p745
aVhttp://www.thesuperficial.com/whitney-houston-hologram-leaked-video-christina-aguilera-05-2016#comments-sth
p746
aVhttp://www.thesuperficial.com/katy-perry-heidi-klum-amfar-gala-cannes-05-2016
p747
aVhttp://www.thesuperficial.com/katy-perry-heidi-klum-amfar-gala-cannes-05-2016#comments-sth
p748
aVhttp://www.laineygossip.com/Mariah-Carey-complains-she-wasnt-given-key-light-in-E-interview-while-promoting-Mariahs-World/43945
p749
aVhttp://dlisted.com/2016/05/19/how-does-dax-shepard-celebrate-a-pregnancy-scare-by-getting-a-secret-vasectomy/
p750
aVhttp://www.tmz.com/2016/05/20/david-hasselhoff-broke-pamela-bach-divorce/?adid=external_site_spinmedia
p751
aVhttp://www.newser.com/story/225403/former-miss-universe-trump-called-me-miss-piggy.html
p752
aVhttp://www.thesuperficial.com/page/2
p753
aVhttp://www.thesuperficial.com/the-crap-we-missed-thursday-5-19-16-05-2016
p754
aVhttp://www.thesuperficial.com/the-crap-we-missed-wednesday-5-18-16-05-2016
p755
aVhttp://www.thesuperficial.com/petra-nemcova-bikini-05-2016
p756
aVhttp://www.thesuperficial.com/frenchy-morgan-topless-gabi-grecko-05-2016
p757
aVhttp://www.thesuperficial.com/kim-kardashian-islam-iran-revolutionary-guard-instagram-05-2016
p758
aVhttp://www.thesuperficial.com/courtney-stodden-pregnant-05-2016
p759
aVhttp://www.thesuperficial.com/hilary-duff-bikini-katy-perry-boobs-breasts-12-2015
p760
aVhttp://www.thesuperficial.com/chrissy-teigen-topless-nipples-chelsea-handler-12-2015
p761
aVhttp://www.thesuperficial.com/jessica-simpson-nipples-boobs-miley-cyrus-naked-vagina-12-2015
p762
aVhttp://www.thesuperficial.com/miley-cyrus-topless-vagina-dead-petz-candice-swanepeol-bikini-ass-butt-12-2015
p763
aVhttp://www.thesuperficial.com/candice-swanepoel-bikini-butt-ass-12-2015
p764
aVhttp://www.thesuperficial.com/kerrie-mcmahon-topless-elsa-hosk-12-2015
p765
aVhttp://www.thesuperficial.com/abigial-ratchford-bikini-boobs-tits-rosie-mac-khaleesi-body-double-emilia-clarke-12-2015
p766
aVhttp://www.thesuperficial.com/heidi-klum-topless-charlotte-mckinney-nipples-12-2015
p767
aVhttp://www.tmz.com/2016/05/19/kesha-ben-folds-bob-dylan-tribute/?adid=external_site_spinmedia
p768
aVhttp://www.tmz.com?adid=external_site_spinmedia
p769
aVhttp://www.egotastic.com/2016/05/kate-hudson-bikinis-for-shape-magazine
p770
aVhttp://www.egotastic.com
p771
aVhttp://www.tmz.com/2016/05/19/beyonce-dad-mathew-knowles-reunion-photo/?adid=external_site_spinmedia
p772
aVhttp://www.egotastic.com/2016/05/joanna-krupa-bikini-nip-slip-other-fine-things-to-ogle-3
p773
aVhttp://www.tmz.com/2016/05/19/kylie-jenner-partynextdoor-together-video/?adid=external_site_spinmedia
p774
aVhttp://www.egotastic.com/2016/05/french-actress-gaia-weiss-side-baring-goodness-at-hands-of-stone-premiere
p775
aVhttp://www.spinmedia.com/#audience
p776
aVhttp://www.spinmedia.com/#locations
p777
aVhttp://www.spinmedia.com/privacy-policy/
p778
aVhttp://www.spinmedia.com/advertise/about-our-ads/
p779
aVhttp://spinmedia.com/copyright/
p780
aVhttp://www.spinmedia.com
p781
aVhttp://www.spin.com/
p782
aVhttp://www.vibe.com/
p783
aVhttp://www.celebuzz.com/
p784
aVhttp://www.thesuperficial.com/
p785
aVhttp://www.thefrisky.com/
p786
aVhttp://www.deathandtaxesmag.com/
p787
aVhttp://www.stereogum.com/
p788
aVhttp://www.idolator.com/
p789
aVhttp://www.buzznet.com/
p790
aVhttp://www.purevolume.com/
p791
aVhttp://www.gofugyourself.com/
p792
aVhttp://celebslam.celebuzz.com/
p793
aVhttp://hedonistica.com/movies/second-star-trek-beyond-trailer/
p794
aVhttp://hedonistica.com/science-and-technology/googles-modular-smartphone-project-ara/
p795
aVhttp://hedonistica.com/movies/everything-remix-force-awakens/
p796
aVhttp://hedonistica.com/tv/louis-c-k-jeopardy/
p797
aVhttp://hedonistica.com/comedy/honest-trailer-wreck-ralph/
p798
aVhttp://hedonistica.com/comedy/drive-2-uber-years/
p799
aVhttp://hedonistica.com/music/halo-theme-empty-church/
p800
aVhttp://hedonistica.com/autos-vehicles/car-scoring-017-safety-test/
p801
aVhttp://hedonistica.com/gaming/overwatch-animated-short-dragons/
p802
aVhttp://hedonistica.com/music/coldplay-upup/
p803
aVhttp://hedonistica.com/people/margot-robbie-australian-psycho/
p804
aVhttp://hedonistica.com/lifehack-and-education/far-can-go-limits-humanity/
p805
aVhttp://hedonistica.com/lifehack-and-education/unbeatable-game-60s-dr-nim/
p806
aVhttp://hedonistica.com/movies/accountant-teaser-trailer/
p807
aVhttp://hedonistica.com/internet-2/insanely-long-tsa-line-chicago-midway-airpot/
p808
aVhttp://hedonistica.com/movies/editor-think-feel/
p809
aVhttp://hedonistica.com/sports/stephen-currys-ultimate-career-mixtape/
p810
aVhttp://hedonistica.com/page/2/
p811
aVhttps://www.facebook.com/geekologie/likes?ref=page_internal
p812
aVhttps://www.facebook.com/geekologie/likes
p813
aVhttps://www.facebook.com/geekologie/info?ref=page_internal
p814
aVhttp://l.facebook.com/l.php?u=http%3A%2F%2Fwww.geekologie.com%2F&h=GAQFJegRt&s=1
p815
aVhttps://www.facebook.com/geekologie/photos_stream?ref=page_internal
p816
aVhttps://www.facebook.com/geekologie/videos?ref=page_internal
p817
aVhttps://www.facebook.com/geekologie/posts_to_page?ref=page_internal
p818
aVhttps://www.facebook.com/Trekonderoga/
p819
aVhttp://l.facebook.com/l.php?u=http%3A%2F%2Fwww.trekonderoga.com%2F&h=7AQFnPHMx&enc=AZPP-srvIdich5PaysiBSOw68jdiRmvdFWQVfRKqQxARtr5-4KuXmSIJJnVq0GTqfHzvyT5On-LSGrTFQlagTHKd91J9bsLUlp3q0ngEqaLZsQ04BMT9UxmEOiaUt1GZ6l1wGPN68SNbSIIrBurD79NOV7YemJt-bpkTZDEinUjTCUpa3cIEEf8LNh5YuaKTR9qUd-Yrp9Kuu_sooZ57SKR6&s=1
p820
aVhttps://www.facebook.com/r.php?fbpage_id=27290042596&r=111
p821
aVhttps://www.facebook.com/photo.php?fbid=1173015452730198&set=a.281655728532846.72674.100000652631537&type=3
p822
aVhttps://www.facebook.com/people/Clive-Cooper/100010263586313
p823
aVhttps://www.facebook.com/photo.php?fbid=254743784877739&set=o.27290042596&type=3
p824
aVhttp://l.facebook.com/l.php?u=http%3A%2F%2Fsparksflydesign.com%2F&h=-AQFOLlCa&enc=AZOnVjhshPhlVblZVFsxl7IncBEDI4eVE7tUKgAGCESh-ZBF2UvpclOxpYBa2XMTMxOJOO5yfYRv3wwMvFCHjzl8mbIByA6kQbcaVvl0d9aqAcbb8zZsHstdCkNGfwdUF5l2RJJQxzIhflFkF6rPxHsmDwXp5sgnmQ4okWbsg8nnmvpFjmOqI8iSKS_herof_QTzOGkxjkmdVN58oDr6desB&s=1
p825
aVhttps://www.facebook.com/Nerdapproved/?ref=py_c
p826
aVhttps://www.facebook.com/Fashionablygeek/?ref=py_c
p827
aVhttps://www.facebook.com/GeekTyrantFans/?ref=py_c
p828
aVhttps://www.facebook.com/becauseyoureugly/
p829
aVhttps://www.facebook.com/JamieandAdam/
p830
aVhttps://www.facebook.com/anticlown/
p831
aVhttps://www.facebook.com/privacy/explanation
p832
aVhttps://www.facebook.com/policies?ref=pf
p833
aVhttps://www.facebook.com/campaign/landing.php?placement=pf_rhc_more&campaign_id=136808916455473&extra_1=auto
p834
aVhttps://www.facebook.com/help/cookies?ref_type=sitefooter
p835
aVhttps://www.facebook.com/geekologie/?ref=nf
p836
aVhttps://www.facebook.com/geekologie/?fref=nf
p837
aVhttp://l.facebook.com/l.php?u=http%3A%2F%2Fgeekologie.com%2F2016%2F05%2Fwoman-loses-her-mind-over-talking-chewba.php&h=sAQG3r1VN&enc=AZOtfr-0jrrCJxkVbdsLZjyrJfuubNcoKceiYXLpyk-TBbX_5-QuyGtJzavcSgM8EXOp7aynvCBRUiv4xjIjl-2ClzZtqQC5YyFi5kYnRsw6i37UOpX7BuHzB8ItYMA1hymeMgtw4jCQvCTI0X9phfpfbsf6HZTstaqKzas3hQu8_6lTsSlh-KGYdp4KOm0CGO5-aHwlSefTAJNPEu4qpk-s&s=1
p838
aVhttp://l.facebook.com/l.php?u=http%3A%2F%2Fgeekologie.com%2F2016%2F05%2Fwoman-loses-her-mind-over-talking-chewba.php&h=lAQGFXosH&enc=AZPF-iYTeUZMlxa3ymWLSCp2SbycagfkNG_Xt99ya7XV5xoFn2ym-K00V3KGgBt2XbO0A0nrmQSeKsEwNxg0vOzNHZsvE8CEn2J4C015DCv4Vd4so5PyYsMeL8aOeVswGu_OQUfg2CHfoLA8Ivk4y9CcedneQ41Y61Bu0Pq3iJVrF1gj0bs3KkUprdUbeDseIXASvgBm4FPuQEVpPAsZI2sy&s=1
p839
aVhttp://l.facebook.com/l.php?u=http%3A%2F%2Fgeekologie.com%2F2016%2F05%2Fwoman-loses-her-mind-over-talking-chewba.php&h=QAQHuYR0CAQEfgmzUsGxlLli-9yltJPYPjvho0VLrhHeWdw&enc=AZP3iZ9b5-4P7LYBpGexbHohky76EO9oFDHLmfkEM5Y46LVpU5yyHgOpYyjZ7qt6TVFjYjWKanMbX6JN6SF1mKWMRl2gb3Zt8j-zHxX8OwCXM_k338pYnfAePoB0P34rY9CKdj1DtIZNHvAIAruG5aLwuoLFGdkSzX7w7vH_8ynbWXpXRjalmkMqOnOCI22GIUVrIFLM_axVI5V-S-b6OXkg&s=1
p840
aVhttp://l.facebook.com/l.php?u=http%3A%2F%2Fgeekologie.com%2F2016%2F05%2Fdifficult-trying-to-walk-in-109-mile-per.php&h=iAQGp8tpL&enc=AZOcu7TM5h5WGGE1q5nF45kB4PBQ3_N_t5rlAvU1PuWRM9kaMBwpbG1I9tKPTD9RfSSQWoUa8A9ex9schA_SuVGmZW-b258oDPtmc2QHl1hjKzz-pvh2gCWOf92ReNXtNS5NIXwmmdkHzMF4m9NWl6y_OVyyASiLRwcqZahDlrv7XFMBrp7gmSieOE9PT7aQerDJ6k6ssvUvvSGXFhVeySfz&s=1
p841
aVhttp://l.facebook.com/l.php?u=http%3A%2F%2Fgeekologie.com%2F2016%2F05%2Fdifficult-trying-to-walk-in-109-mile-per.php&h=fAQH8Zas8&enc=AZMM_21ImGPQSmKU4umIc5YwV5Qc9KRkEPi-zCuAcNfKL9YTQD-oUg6b8V8dhdF-xHZygaZ3ivx3vzmaOFCv2fxfb1p-0Q1yNUOmbRwrtdO5PxzTyq-jjRzvIT5eBr-ptcZW06Bg_WxhNSCY6KRChTydMcuoAdrL_G2rG-dRZWUcvjQ3cqAdD4DlbjaYjsEElbEc7XwLMMDquXfYxKWi54zi&s=1
p842
aVhttp://l.facebook.com/l.php?u=http%3A%2F%2Fgeekologie.com%2F2016%2F05%2Fdifficult-trying-to-walk-in-109-mile-per.php&h=IAQFjb4poAQEF2Arp5z6eRktgnjAoQHmlmW-86xjphUbvSA&enc=AZONdCMKSmbd2qUilvwW9ZDoUJd_0Ky3Nrp7phfLKtBHvxHgp1kScBfasB6hRnGWTAPLjwCKjhJ5IMYeuxTiL41SL0iu6Alq9Mpo7ux50NqRXhf6VKX79A5pgA8jhEOaHN17-g8Y9RNlk0XMs-Sz3Q9LAMee4B8pIL-mA0UQzKVpTBg3YIQVZSt1aUrN1SI5ty-P5ouJzukURJb_x0jCEeRS&s=1
p843
aVhttp://l.facebook.com/l.php?u=http%3A%2F%2Fgeekologie.com%2F2016%2F05%2Fcongratulations-man-sets-new-record-for.php&h=IAQFjb4po&enc=AZOdiqoKgvL3M9_X3kWxgsf7l_5fhF1Vf0i58xUw2Vv_PUr5xcczdAx00HNw_y-QSvnCPPJA7e4WtlyxgrrNPoO1NhuSNnOAZ7IlRiuBQgNF54yDoOW60sDnjzd_U-pMkv3oVgM1OUyQ-rY3fiyTauiej2d6tzprhE12pJ6Iwtpak1bsMEE2TQmygcrE17lr7MITmybdL0HryUaoZU3ESzD7&s=1
p844
aVhttp://l.facebook.com/l.php?u=http%3A%2F%2Fgeekologie.com%2F2016%2F05%2Fcongratulations-man-sets-new-record-for.php&h=wAQHXGYuh&enc=AZNJY05tgWPBtKgwqe8tcpdnyuV7wPJge9vb6gxMdI-FL-AcBa-5p1RtWbv_Z-mEbEppeDGDHiHVhFl2poiTJJhqCIiyc2Miqhft8YEh12L4jymd0dm39xYZE0JSc9OSiITY-aLDGEAZidjs2aopy95aBcrihzsoKuXKkvb-Jmp3UGdI-AXlsqUGJYtt4CfCW4TiY8aETOkwfn_wNkDCr5Me&s=1
p845
aVhttp://l.facebook.com/l.php?u=http%3A%2F%2Fgeekologie.com%2F2016%2F05%2Fcongratulations-man-sets-new-record-for.php&h=aAQH0RZQ4AQGfpS2Z92zrJq_2xrrZBsFGLbuq5A5oEM2xqg&enc=AZPTZdliaPBkV8hwJAxQStqITVYF51YU4h-Surcigbj8bnPqIJD6b_l2pGVcX48PbEWHK7cD6IkiTn3cskZ0ReMA4op-dWiRW3sDN3SDpLHtTgtp98dOeEnhia1dCPcP0-lJ4KJhbncbE1-S-Ozv6e9F70R434SuHYLty0cRzUc09S3WLxnKhyUqR76F4ajEIGJQH1dKM3-jnrZL4vzuCqLt&s=1
p846
aVhttp://l.facebook.com/l.php?u=http%3A%2F%2Fgeekologie.com%2F2016%2F05%2Fbeautiful-giant-octopus-kite-with-waving.php&h=MAQGqSzes&enc=AZOFvm7FXQjEjy756ygL8jaINLnmkk9VvHoZbooFmZsHuLzGZNPCeFk0ahNUi55euJNrqgVxqWhlLdDb-h5PH_Q72AXUNPIbBGfyLMHIyHLc4iH5FhRrIV9-qYGJyNT5i0JF-aQEXdwJiPBPIGQWIznXSO1qk2-JEQJx6r6-0ErLfDEeEqRJMeLmprbOep-W5JJwDIr0I87xtcCkBmxBc0Xo&s=1
p847
aVhttp://l.facebook.com/l.php?u=http%3A%2F%2Fgeekologie.com%2F2016%2F05%2Fbeautiful-giant-octopus-kite-with-waving.php&h=6AQGjPD8N&enc=AZPT1xZM9O6uzijiPfjGXhuSxihCG5TsWXiVH6cIt_H45s2sV4zUrLinuFNqM7wxLlgJbM8uVUPAvIufiunyAWB3gRHdogcRzDn-k_U3cF2hSfm8CUEW7Hx1lCy3DP7QZq88IJc0RLMIu5QXhOBbEJ114-TVtZ3JweL4ZrMo1RcTOeQBk4xL6_e2l4UmLaR3hRBybzGWnQcxmbF0HceQWGlV&s=1
p848
aVhttp://l.facebook.com/l.php?u=http%3A%2F%2Fgeekologie.com%2F2016%2F05%2Fbeautiful-giant-octopus-kite-with-waving.php&h=QAQHuYR0CAQHOBpsmb21GZxvcVPjTL3v6DQc8Z7_cVk9Dsg&enc=AZPHq7TgYVqcI0g6vvqZppmFX1jFkviRQvmzTH2l0bctAux5Uq4KRu9Eugu9Gc5d2rLB-gfxgHvzMGvgKqctX0ABZeri5bpb_LfHla3-rGPj4fbyhhh9XkDrqIhXb4jtoDPB6Tj_dt7DAP2T8w_wZioRlP6UZgHTU0P6_OmhE5Nz9zNuL9QcRQ23SY9JC7c3A2hUX_lKUPCBhXBQMRVzNy-M&s=1
p849
aVhttp://l.facebook.com/l.php?u=http%3A%2F%2Fgeekologie.com%2F2016%2F05%2Fthe-end-nears-dogo-a-tiny-tank-robot-wit.php&h=oAQFFjoWy&enc=AZMeNCHfjHwvzmfoHbp5AecHTBqVZZxmzCYq7OlRa4LnAbLu3wErLbdmmJHrB3cUyFrX0hYtSCcxZjcyom3YpR6sJ0EOqdZI0jgUu0CeMV-3vlKaeqiJCFkf3uOGMZZpS8po8MdxxROpoMYqpxj38Afe9ETfqG99C4bN2Q9wYWdihM8LIz2hHs_2jk9Zn3drBfL0PR_zy30N5PhdCU5gzXrJ&s=1
p850
aVhttp://l.facebook.com/l.php?u=http%3A%2F%2Fgeekologie.com%2F2016%2F05%2Fthe-end-nears-dogo-a-tiny-tank-robot-wit.php&h=UAQEJhp5n&enc=AZMFrbeWmxeni5vQFsinGbK3tMdM8ZCZ2YjHXiApHobWDPuUaG8Nr8JmguVQExuvBoxlQ393UQQZ3K3DVF771LkFy5SjhGNfl2yrgA67ZL7vdYaj30xiLm6K55Ryy6r1xtHhtdeXS3xYbkyg9QDv1u00AMtleX9EUPBbzwG8vb4l7EidJjYjh8eh07TtT7hOmamuZ20-7z1CRar4UJ6-BlA2&s=1
p851
aVhttp://l.facebook.com/l.php?u=http%3A%2F%2Fgeekologie.com%2F2016%2F05%2Fthe-end-nears-dogo-a-tiny-tank-robot-wit.php&h=CAQE_vs74AQHpWHTrumx1lzegqZqiGBp0VsjYX7QHKhDvSw&enc=AZMJO6QJwGE1JNViTL6__tuf7MHdqyTwnswXcV-jpjgGtl7IH1TUs2NkPH2ILTo45lChZqqm9QTQ4LbOgSAJ4C0zR-53grFXjb68l_bjRCoHPH5HymgGuyr_IjC_5C0xaPDy7hpA_slAQoIuTBEgoUpFPG-KI8ixGuVTde6ZGac4cHb3aFCrZbC2PaaSGjj-KaBjFwTN0hZ3kOmGbJhFsdN8&s=1
p852
aVhttp://l.facebook.com/l.php?u=http%3A%2F%2Fgeekologie.com%2F2016%2F05%2Fthere-goes-my-summer-body-reeses-releasi.php&h=bAQHxsOst&enc=AZNeZJ78QhGR-addtJwGmwsr3sCnOqpE7ar2OYpW9gN_zDqwBeJzyrE4rhWtJIaplCjjrPFsAmhCXAOvI17sISDi01Opn6hx51RvAZt3ZAGF4zd95Mcn351Q95konG4pQzqfRhlcDStZIR8pAW-k6cU_f7hlYarDR31onJI3wcMZ7c17dsYhwtT9UwzlGlqcD4kKoU7HLumci84TkBlSZV8x&s=1
p853
aVhttp://l.facebook.com/l.php?u=http%3A%2F%2Fgeekologie.com%2F2016%2F05%2Fthere-goes-my-summer-body-reeses-releasi.php&h=yAQFrDPqo&enc=AZOnWovJ-3pmWKirLYP3ovl_NWRBIqnS5MnhpuOFdO7FNJygiSfL0Ya5VbDqUX5c-zXxOVOrwfsdhV8fWfjPD53Ok7waDdmQMQcSPIBn7ynT6LdkyAi_8W8-XYc8pSM0mIuMQSTQcYZ0DzcAG0-P0NHIeqpNMaNbWbHpc-vVmRpBk4NGlvY0BRbO-zE1-EBk6DnpUG__ScXDRfmn1HSR6tq5&s=1
p854
aVhttp://l.facebook.com/l.php?u=http%3A%2F%2Fgeekologie.com%2F2016%2F05%2Fthere-goes-my-summer-body-reeses-releasi.php&h=BAQGom4BuAQEYZDYG86QXE-xN-XqWFy3wx7Wd4-eorM9Qkw&enc=AZNkLPKqOFPSpqjQkoidVLCeycmBz1kLZ5GY4_jJGcp_9vrjw8X9S36dbTxDSMlPhwQDJeQw-HUgbbhplmBIOcJwBWWta6VexlzhnbIKy8tjvpCCDBz34GrdVJuLJBYiTRLzhJiUxFYTGPfmnOhVhNIUQ2fwWZY8EuHz8hVSGiiBChmGFcF1AAIYdFelExMs9b7VU6bukqy2qcwmvlFOJiTC&s=1
p855
aVhttp://l.facebook.com/l.php?u=http%3A%2F%2Fgeekologie.com%2F2016%2F05%2Fthats-gonna-hurt-what-a-zero-star-crash.php&h=hAQHbrc_x&enc=AZPj6JjOXu8oVDyy6OxNnZyCBDiMPmz7hhANW36vZx_IMS3kWjIl4DskH-MNgwRpuArTFC7TZoEo_Nmo894EoYZKDtur25oSiRk3uYuF_6CI5fagAChccjIfq37ND01fYx0aeokMP7kd4qfdTcMXokI4yihFM81FQHpQzwhjz6g-IAeea2__xg8sdABdwTtEY8sck0Utmopv5W6LatAFz4xZ&s=1
p856
aVhttp://l.facebook.com/l.php?u=http%3A%2F%2Fgeekologie.com%2F2016%2F05%2Fthats-gonna-hurt-what-a-zero-star-crash.php&h=LAQHPg8SI&enc=AZNi_VYk_1aA-uZKOV-Nl6AfEW_hI7Hjkb80jVupGVNsWasrMdDrPXE29d_NDctbeYjUKILuSg6kgIcWq3CXTEgGDGK5R7_3og1TetTZXFl4Yrkxf9mkLmbtVN1bobplj6nxBxuMHJcCsbvi6VLSlA2kLhqois_UPwXKJMb0tgF4L3pKuOtKDS3g1FJOzQ9tQFdeMWqw1_tqBoODwPDc2o90&s=1
p857
aVhttp://l.facebook.com/l.php?u=http%3A%2F%2Fgeekologie.com%2F2016%2F05%2Fthats-gonna-hurt-what-a-zero-star-crash.php&h=AAQECWX1BAQHsSGutKCOgM0c1pEJaadK4WKjY7RvHlb4iKw&enc=AZPz41QxzX_jbrn55PYGbDHFfUdUhzQ6ZI9AE8Cog9EE-sD8-9sPd3O_VlCkzlNLsLHnCMDhAeMxAMGxjoTunYPg6k69V8UyCuPwiM5wsYAxuZnbXPTsqAERrvtI3bQsQSqkqzMDSyzLQ0OCRj829Od6htNvcoCMYcL8sz2MLVopiHkfl9gl0Ac7TbPjUPD-66ozXpCgV8__HD1DK50Bi3SA&s=1
p858
aVhttp://l.facebook.com/l.php?u=http%3A%2F%2Fgeekologie.com%2F2016%2F05%2Fdoctors-perform-first-successful-penis-t-1.php&h=-AQFOLlCa&enc=AZPPiMiWFOtXTcJsHZPKFMbxN0vHOrNiKD-JukOO7tRufQks5Kmf5-S2bPb9nAgSr9e3vt5eA3FsZpcNoOqgKbI0hvkhzo9A7Fg4IxltAUIcBMbblvBn2FY7ZizfymuLARyI1IpAZswKoCkIf3N7GSJfitb213iRL8F4hzkNGKSGRhfo-6DQij5ggUWJFG17vWa0EPIZZLSmi27yPBDZ4s8R&s=1
p859
aVhttp://l.facebook.com/l.php?u=http%3A%2F%2Fgeekologie.com%2F2016%2F05%2Fdoctors-perform-first-successful-penis-t-1.php&h=JAQHIBD83&enc=AZNEJHRS-LlqFZVKFSkb_UitiLDj1qNE3d2GnA4zecp8h-Di0r5UKuGmt47I6jdLw1SQdx1FfViF3dNsHeXF6CByaQ5GzFeFXAu8fYuoLetomPmOmwQ-yWI90DsHS3sY5r7eFQa-vhjmVP0zCS7HnQgbq7ukq4IReBUk74I6CSFjlEQtkd_Rz0G0zorevlQ0MbLeLBlxLIzKEQoWm-bYlOza&s=1
p860
aVhttp://l.facebook.com/l.php?u=http%3A%2F%2Fgeekologie.com%2F2016%2F05%2Fdoctors-perform-first-successful-penis-t-1.php&h=WAQHqj7YXAQHbmxuH_gg7jh1JLyey7Y35xVshNB65vvkaBQ&enc=AZMU0DhVsoYAk8zIrDdHodKhvwTJV5j0EoOGwta95mJCNFJ5QRB-sqYkkApW6z7pccjMHZKFqcZCtHfZmqKJxSLQOJmPqPPgfyMwyeXGn7PZT6OL1AE1RcmbY0lrwfy7CaDCco3rYVgayE5axyFdZLoUAEJ8luej1VFWpGrw-KUfryr1MJw1-r3-cgJzpCluCkpuPlLXnz_4oozuHdwQFWrm&s=1
p861
aVhttp://l.facebook.com/l.php?u=http%3A%2F%2Fgeekologie.com%2F2016%2F05%2Fmoose-in-alaska-playing-the-windchimes-w.php&h=xAQF5U15F&enc=AZOqKYXRJGXZoi_yL3Zbb2rdI-skrsu-y4576PgFJhudE20VlExMlWx4714HVrHtDF8tPEGVXq9Kupm3Yz8uLCgo18-3l2po4PYsBlKu6A65L1I8_PqPJi1PIE-8g6-zNuOesEImGWiLxboOEo-dyFNTXGaL5zYUT5DlSlGugZZbbUsMWCsnzN2XqqqhHdzrWKRs_aT15bOSwxvmhFo0PtAU&s=1
p862
aVhttp://l.facebook.com/l.php?u=http%3A%2F%2Fgeekologie.com%2F2016%2F05%2Fmoose-in-alaska-playing-the-windchimes-w.php&h=yAQFrDPqo&enc=AZPv8IYMIidjI0BaXSpYvtzT9FejKvfPHJO2XI2CBoP1v2P-F9LN89Ceo5OR7SPi76Gog_A8GIXiJnHmRbIlL2JuSzFuhz3hHMmL-ac4YPS29KdhVr-HntRvuzsPIMDt3jHoIbFkQbKse_4LkDwqQu6rrJIU7IXlFIQmZKxbErvqhASQtpGcGGSMKgIiRHA_7pmy6F1gFDkAMkQYet5eS9uN&s=1
p863
aVhttp://l.facebook.com/l.php?u=http%3A%2F%2Fgeekologie.com%2F2016%2F05%2Fmoose-in-alaska-playing-the-windchimes-w.php&h=iAQGp8tpLAQE35TojluodieCKowTG3itvtLUF49P_ftHw0A&enc=AZO0qjTI8xGBgjHmsNWwbw3PQxJeckZPn0HacceU3-RC4iy3DdG8DcGCB6ZIHJGIE-iwdev3fuelQGNz6mLU_5yPtGyLomJ3lH3rpp37BRygO1smRRkRJN4xmeRGZEt7pIZ7aaV842UBfu_0kAjHb0l7yyQIOs6oP6T-31ujrzR_ih41INAq0q3qeUoWCZiF6VeJfoYNaDNSbVPclI6ITEfy&s=1
p864
aVhttp://l.facebook.com/l.php?u=http%3A%2F%2Fgeekologie.com%2F2016%2F05%2Fwhat-bb-8-would-sound-like-if-he-ran-on.php&h=QAQHuYR0C&enc=AZNPul3Xf8lWa11gpDhtHyWnCJaY2L9yBwDZe_Ut0f_K1nzOcHCpyim0bYehy513ojqwqCCLeGPFjVtQHA8JXTZzV7RZb5E_5_RBJpzxofFf8774bLp_vmDlefcw-pv6npi2VjoQjweqCPAzO9fc4oQmFhoQ75_HcaSQQRd2SfrXirQfivw3ICvd0HD8prk6d3sIkt2ohmlfh28C6jdGa-g0&s=1
p865
aVhttp://l.facebook.com/l.php?u=http%3A%2F%2Fgeekologie.com%2F2016%2F05%2Fwhat-bb-8-would-sound-like-if-he-ran-on.php&h=UAQEJhp5n&enc=AZPcbQ76SPcJ8gvhPLFQrpLnLOXIeecKRHtKuxJApPxDW5xJreTNvOQ68OaAiWZWGyO-Z0tiGzSOVUUurUTyHgQXkdFBbus8RVPq9xEwGrbPg3tKhybkQHv4fzYFV4sNEEJSqs-vgqDxyoUi7y6RPOb8Ftswu6F04jcL9INSlH7nzb_tDMV9uFU7hFotaUbM8wSpDJQhZt2TyPSZYjXpcuQm&s=1
p866
aVhttp://l.facebook.com/l.php?u=http%3A%2F%2Fgeekologie.com%2F2016%2F05%2Fwhat-bb-8-would-sound-like-if-he-ran-on.php&h=9AQF_Uc2VAQEY3-St16kTliLX04HknC3kFvk1n731yMOcPw&enc=AZMztIMjTFM53vQz96CDi67eG3BrtdNHRDSg3_TJ00ZirO9iKgxB_zZs3swe1OOwwW1nFw2teMbq4ZtaXoMFoDOIPFGp_xWGvDCXXETV0fRcw1BkMnXtjYeT_0X0WKrzeNsIG7EDL5HTfHphwi-cl-UtBZjM3xdkriCDCKmgzjztoQRL8eeyFc4stN88m1VisMmT99LEyH75yKBXtSakSZhJ&s=1
p867
aVhttp://l.facebook.com/l.php?u=http%3A%2F%2Fgeekologie.com%2F2016%2F05%2Fyouve-gone-too-far-way-way-too-far-licki.php&h=jAQEdzHA5&enc=AZMaBwk7vxNk8HfdB0ju42Y9YIajywPqZ1gvCVyrX4A1-CaFVzIwhokDvTMxMw5Agivxw1rXcBhmUMnT--LEB2oT5ylKqBAkdZM6FcQf57AfsbYpgrYLuI6Pn1z0cWkNg4KEfHXiYMV7Wtly82H7UjtjfKW0wcc8iwLOEDSJ9chRfc-s2DyBRhcwLecrnOYYGwCtorW3v1rOscK-ScYSgj3c&s=1
p868
aVhttp://l.facebook.com/l.php?u=http%3A%2F%2Fgeekologie.com%2F2016%2F05%2Fyouve-gone-too-far-way-way-too-far-licki.php&h=UAQEJhp5n&enc=AZPD4hFpjBnoMQrKFGonF9rFDk_hZ5dQi3MoctoQBv1F6vpcP0XMnfHAMFNNtEOQAHjGU2oovaixSfEQ2EBa7KFnzMEjvfnis8Gpiknx5lger00M-hVPQxABblgDeTucDNSkgHYfRHLgEtnXUvR5EB5Q57l1XF2zin9wZ0UQ9OeNjG0LzLa3qQdXUB9OqXkhWqrfKRq-nx-jqVtwiA3tA-_m&s=1
p869
aVhttp://l.facebook.com/l.php?u=http%3A%2F%2Fgeekologie.com%2F2016%2F05%2Fyouve-gone-too-far-way-way-too-far-licki.php&h=iAQGp8tpLAQFXgmlYthDenJIAHzHPOIuSyEaoQluszf58Dw&enc=AZORj7OJrAEhtOS0y-OU1KFDz8iPC0vVidj3c9g4DcKok9RM-Z2IFxnAdonWwKfZoQajsIJR25zWzVeHwkO3-r5Rq0A4bc8s-rTsoGcnlmOJkuXjk1RvpOG-k-FlK2z_iGssxRaXjCfkTcMxYAappClWi0balUjhqmPeFI0vEB4SOPzU1Cjh8mFktzzQWnOcHal62QF9wM8GNe_WvrLHhfEO&s=1
p870
aVhttp://l.facebook.com/l.php?u=http%3A%2F%2Fgeekologie.com%2F2016%2F05%2Fno-regrets-new-tattoo-that-only-lasts-a.php&h=MAQGqSzes&enc=AZO-jZs13b7MCl10e3zudhZqF0arctx87f_zw2OiLRnwPbgfuSkG-BRg1JxTYFYg2__QQyifoZKI-Ebm6VKXp7wuE4pgBY6jDMDBrSa3htq-JpwnpqRJTff538bAiUWGpK8MYGteTTpBTG8ftyQ0vwBAqAAHYFSaY1y1NPDOqfX8Q_ad1COjfv8CzaB7VQx2wU-O2rcHBFTCBEYqJNa092Jn&s=1
p871
aVhttp://l.facebook.com/l.php?u=http%3A%2F%2Fgeekologie.com%2F2016%2F05%2Fno-regrets-new-tattoo-that-only-lasts-a.php&h=xAQF5U15F&enc=AZN_WPnpsu_brSxk94r7DxwCzMZpyvyan3DLxSeMAyB3tOycxp5W1QF0q_WF_AOGwQIaRp_wZKmbo79xoxw-ioVoxLIPeXtIoRHtaA-uIIvuArPzLgLZkIYkmnIWi_zllSFFusVVmrfS13C8s4VpBnY9e0nMUJ8Dj0dHkbycPVX35_QGaROA11b5vjgnXccGPNK2T20-li0zE_XECc7QaoLy&s=1
p872
aVhttp://l.facebook.com/l.php?u=http%3A%2F%2Fgeekologie.com%2F2016%2F05%2Fno-regrets-new-tattoo-that-only-lasts-a.php&h=tAQG7JurVAQFa9tCOTxN3tVbbZtjnp0tlbeabAzevMX0ggA&enc=AZPW24zNYAT6C7kVCDamkFYtxyCTaH7rwMcuNU_2CpDXZqS-v1N_01L_VH0KcCEque4HaCZGx6ktwGjgJutWeLLGEskqFQDPRK3kz43KtkgPnLPnt2vTGNGUl2cgZ6_B_0yWVCrhbeRn8VPa6-VgTVSTNiKiKzi-R0I2JYJIk08UOb4LqlP5qIHnmY94MOhebtG34q5eo56ycDN-P6MyGQCA&s=1
p873
aVhttp://l.facebook.com/l.php?u=http%3A%2F%2Fgeekologie.com%2F2016%2F05%2Fin-ear-aid-translates-foreign-languages.php&h=cAQHdYDU8&enc=AZMurHXrw-Y9dq8208HqoG3JpSO4KWKf6x_YgGHYFYJ9RsYN6goNnfcDCVWqlbg5xo_07ZTkhY3z2Hgt55y7srH0zZXSwIlRU9uZnfdRAPZYI1iFFgtBYwyqN3hnhu_dNjVDkokYpeeo0zqRhbkSi9N0iu2ewUtZRBRr_IxsJ5NStyyhQF0PbsoVNpZlv-iTdkRTJ7xZF561noecA1qR0128&s=1
p874
aVhttp://l.facebook.com/l.php?u=http%3A%2F%2Fgeekologie.com%2F2016%2F05%2Fin-ear-aid-translates-foreign-languages.php&h=mAQFCuIjP&enc=AZO5u-zwqhdePfx9qkhiMDCqvHv5jBrdomcnM8Uw8oTJwfEjNYcP8TCGao3P77wTCXPZHepJfc4eMy6Tg0Wzn_KbYGX20x87DioBWv4deb5a-FWsJNbMP0qnGIHwsavTfi0TgjTaAyXI0yqwTeWYVAl1xPu0FPjFCZZC35SYhHilpo3E47VbDpMFRpAAhI-O6jXS7vq8c94ZP9Xnjeb9WT2e&s=1
p875
aVhttp://l.facebook.com/l.php?u=http%3A%2F%2Fgeekologie.com%2F2016%2F05%2Fin-ear-aid-translates-foreign-languages.php&h=bAQHxsOstAQHoK5_nfbkNxYYU5Tl3aOOETYagYR6MoVsR4A&enc=AZPKLkfU5U_DJg-AsAagryEVYRj0jJ_gHztmRmolXXoknkIIivMppAGSq2oc3XNFq2bPe897dR44_SXYoTrG2gD3okg-wL4GDfFCkGA4nsM9q6t-nZLp_69jw6VAWRZk3RGgugexEiffibCAzHyjZdkTNUGKIa-yS3M16NhPX2zvlT0DZ7KEn5Krp4ieyWXr59bRnVH837e--u39J39ZAvKk&s=1
p876
aVhttp://l.facebook.com/l.php?u=http%3A%2F%2Fgeekologie.com%2F2016%2F05%2Fbrewery-develops-edible-six-pack-rings-t.php&h=IAQFjb4po&enc=AZPpz1SAJFvFyH-_NdyPQp4hn9cQol7WmyFAwvsiyvZChCBg9DJ9eKT6GdhCKlokSV7kabJ3cIkFBXc0eeKxreGCZq4IeVRr2DGFgmRfjTMkzymrZTyGaHrXodZcf0D3FTPZhzZ7TReSt_QrJgwQeIRyyGfTv5YRkb9pHiT_JpyIR1JqeTlDBjb4mjwhH7XgFs919YAfGNffEN3kiXVLwyOB&s=1
p877
aVhttp://l.facebook.com/l.php?u=http%3A%2F%2Fgeekologie.com%2F2016%2F05%2Fbrewery-develops-edible-six-pack-rings-t.php&h=iAQGp8tpL&enc=AZOkZ-CwlFRivyDmD8F9joBK7EnigPS5v9mB72_rNNnPTW-vvOwEsJYtiXSPCmLC7hKwUORBaMvo69dM-3eJd9P5GmqZLAxPdnnZVghhTNTl6UzkqtfdJYRaRLoLOlhF-n0DXxdtoXlQGXz606m_p3n0yL5jbG_yeSDI7E1wPvFykN-yyQ-A9LNLBRGauav72uh_OeGzohdwnXT-Ns4r6_aQ&s=1
p878
aVhttp://l.facebook.com/l.php?u=http%3A%2F%2Fgeekologie.com%2F2016%2F05%2Fbrewery-develops-edible-six-pack-rings-t.php&h=YAQGkczSAAQGKM6W9rmkBUpeFB_5fCQkd46yflO-iJN68Jw&enc=AZPrUXspJGUZZbrIDH8RMLo3V81BSEmdu6y3-0XXCZ5CXJ58r9rXa9Lf3DsOVn2I4_rBCZlfsvJTzyHTYqvgbL6wMVjwroCArgrI2pYznarwx0wasL-FToxjfh1vEtT5VP6vYD_5Ychxpi80HNTA94N2N5xFb5HElVNh0mQhzRVAWORYIeBGVtW5qUp98nKxPVeSwHfZDfoanv_t8pcnag6z&s=1
p879
aVhttp://l.facebook.com/l.php?u=http%3A%2F%2Fgeekologie.com%2F2016%2F05%2Fdoodie-doodie-finally-a-smiling-poop-emo.php&h=oAQFFjoWy&enc=AZMIAI6VPGKXyHn-lnKBxSyYjEWcZbRo1N7-swiMDEveASnZOZbTCh3JM_DViJJCPKm_w_xcUCKBpXubEOZtkK6BrNqzPumCBErgkGQnVyqpubbhR_28Bcgk2H_2TH6NX6EiKa7bheUdG45cwO89-cUYULdSNclJjjlplftK4dSd56k-D24RY6NzORPXn5sVOluL5_c4f-Ys_2RGOy33CDu9&s=1
p880
aVhttp://l.facebook.com/l.php?u=http%3A%2F%2Fgeekologie.com%2F2016%2F05%2Fdoodie-doodie-finally-a-smiling-poop-emo.php&h=mAQFCuIjP&enc=AZNVKyeBWw_E9DOTE6LwEp0kgDE518kakgJsG3dUXvbQHUUc4hG5MPRxE7yi4hGrQVuxP66A3yYCg1NsHy2RtpJGYh6FclqYdZj2Xjvij3iGbLix0zoJmbzd-8JtF-cznXtq_K-h_F1DZiXw64pkIYz8SwodDYIAOq1RpdkbNzl0V6Gj-31j7HxeTnq1DZgcHwPmAcP7NBFTFk4FB5oeei3r&s=1
p881
aVhttp://l.facebook.com/l.php?u=http%3A%2F%2Fgeekologie.com%2F2016%2F05%2Fdoodie-doodie-finally-a-smiling-poop-emo.php&h=MAQGqSzesAQGF5HiH8TN0NDB9ltJUGsvm0uSYdEV_XEetAg&enc=AZPJ6ZRL4SEJkzMPLtkm3uyZZ1LHWOu6xNt04nbT1yQcffXNSyHoIns42rtGDp6hM3jHV09yXTX-YGipt3DfDP1ZugteVIOqC-Yr63QTSfVx6I3nE7nxOeziL0PqKK5hYf7isRhXJhc6trcdjLuRhKjd8VXo_YIvXJMeBIg2kfq3XQ9tJNJh8_34m4kwrX8c84u0BORHjuDl4YeqCwGNxJG5&s=1
p882
aVhttp://l.facebook.com/l.php?u=http%3A%2F%2Fgeekologie.com%2F2016%2F05%2Fwhat-sorcery-is-this-amazing-playing-car.php&h=dAQFXRGGV&enc=AZO0Lv9mkl3U411VnhT3rj4Ih-cBK0XsT0D0XPSzeKEcqxtMk8k4MMYpDJMVTKs8Yr-NilAxvxHo8zX57UZU9WpNAL925ILnlWeTNp7XiDsueC74z7kWd3MA9JWkvHxrOMDtDNhiLxtAIW9_oCI7vRHN9gJQ518SOV0lilfj7neTnFBpJPlsrajpVpmoLFSPm5ih3XowCa5L4YQ8OfUXH2t-&s=1
p883
aVhttp://l.facebook.com/l.php?u=http%3A%2F%2Fgeekologie.com%2F2016%2F05%2Fwhat-sorcery-is-this-amazing-playing-car.php&h=SAQFXmFzY&enc=AZO3ncHvFMJZXZFcMi2aTSB9SI13UvpAQ5fMbJb4f_8osIVnTPCCbtxb9vMBW-kLsHJUipknJwhjabW3yzseIc6CZkEl9zWbkJ2mGzejKJ3KWRJjK03EgfOF651DM54tvKefs-8OU805Gvna7Vu9Ro7sAqRNtKFqMZt0ykOHPptFHHL2RHCqcoYVCl0qTa4RVTKNLpkHRpRmA5eGCgizUf2f&s=1
p884
aVhttp://l.facebook.com/l.php?u=http%3A%2F%2Fgeekologie.com%2F2016%2F05%2Fwhat-sorcery-is-this-amazing-playing-car.php&h=YAQGkczSAAQHyId2Ty0pA-wLH6dkl2ymckVRHCAeAL4UEYQ&enc=AZOHQOWbr26NszJLoT2ubpQdN0fQ_YLBwz_oLRMxGXNWY49dd5PT8lSEEnX84c1_2REpUYaFnaJuVzxSOj0MLFIpTkpGEa3YcIVxbvTid3veeFRlIO4isPH0rHOAYHlQwplX-PShZ4V527WgAHzkr1WckRno0zC1g4jySpLi-RwfpRnlSXhTRrWwFAv2D7nLprFT8tiCDSjpo5QNgV34M9SQ&s=1
p885
aVhttp://l.facebook.com/l.php?u=http%3A%2F%2Fgeekologie.com%2F2016%2F05%2Fsure-why-not-a-star-trek-borg-cube-coffe.php&h=YAQGkczSA&enc=AZM1tI_SfmVq9SWNlUdOJ0m9Rm7VZY6_YTRG7ajQwZ9DkFYqjVv-SaBFTJpPU6yLu8ALPYb-YQo10fnKg_B66dmtGFafINbP46I0MpScKGXzO7vP01Rc35hBXSj37l8jEiWN3aPLHzh_WEDrD1K_5CbvmRJMwVJtCIgljVSM1C14VeIOZXIFcJeS8xnE2O3OOQ1u9MxWne8nJ5owGpfBUSOu&s=1
p886
aVhttp://l.facebook.com/l.php?u=http%3A%2F%2Fgeekologie.com%2F2016%2F05%2Fsure-why-not-a-star-trek-borg-cube-coffe.php&h=PAQGuxG74&enc=AZPUdlS9-GYW6Z9aIdLkYWS4Rct8DA3i_2En2Vz_LO9hogFzXoY6ezcvMBBARHIY0EGXfo7U3Z57TTDnvURxSYfiAKhvuVD9QIqNh59Pg2e1rU1eSpAWrcotj7s8wpUm7C0ZtWauuoI0VbwpixTKqjYox9pIUQwdwsOz48s71rwbryV85J9dG2Kd1-ynsWwBpOZfwpYPc3RA1VL01f5X2SAG&s=1
p887
aVhttp://l.facebook.com/l.php?u=http%3A%2F%2Fgeekologie.com%2F2016%2F05%2Fsure-why-not-a-star-trek-borg-cube-coffe.php&h=rAQHKMp0oAQExhbPObHYkBZIoKXWLyZleKvkzgaFA9nU0lQ&enc=AZPiQoUL31w8d_IxHA8w4WbzIRJh6vOb2fDoGijLDBYr0Vsiy2Qltu4O2ZYY-gstuV3TR1F35tD9pmABFiIG_LU5XefPR99ibewddQJuVmWVgoGJdCHqjr489hgEczZ69b1ErBHLcnA4atOBnGw4ID7F_xfPx61KUqodlFS0FCk59w-XauvI-d0_U_2Su0usU9DymHOQW4_1pYixRiTMpbq8&s=1
p888
aVhttp://l.facebook.com/l.php?u=http%3A%2F%2Fgeekologie.com%2F2016%2F05%2Fjoin-my-band-guitarist-plays-a-piece-of.php&h=qAQF9hlWh&enc=AZMKyChr99i-oBaZvM4CqrIw7AkY8srWX35iepvqv7dJIkLOhRBbpW18ykMJB4h-pTAAz3625H2FcyagJUhEbYqtdDzsw6XspLEC9jViRgrznAz_fyk2VG3fu0ZFk_TabbuFK3ovJ7Hy8p1PvaSesOSOU3x6rX6QRl5MU6LtWmn4bZ1-ou57R6qaCuS1m9YfmdcQWoh1SPaFn9cwrGj_Ew49&s=1
p889
aVhttp://l.facebook.com/l.php?u=http%3A%2F%2Fgeekologie.com%2F2016%2F05%2Fjoin-my-band-guitarist-plays-a-piece-of.php&h=zAQEeiOhD&enc=AZOG5kHLNOG6iCPJG1YgnT8qTCjEkbA8mcOnL5LOu0gwYzbUu0VP40LkMuqy1NXdcHkS17erhm4pX97iGKmsWnKWiJ9xItkZcORgEG_ryd1C7yKgtYhlrkAxqp6q5eUoN4lB1zS65HgvFx4lhHBlFnyero9i9drqjf1DjP_EFOJHY4My5IXQcwYPZa3kDDKt1K1D93_otAS_2lXxMXmy5lqk&s=1
p890
aVhttp://l.facebook.com/l.php?u=http%3A%2F%2Fgeekologie.com%2F2016%2F05%2Fjoin-my-band-guitarist-plays-a-piece-of.php&h=-AQFOLlCaAQEVrFYNOE1h_kuee_xspYFnaskTNKXl2brJ6A&enc=AZOeLTS_AlPgnBWzM4ez65tChXWTgSXvgsjTiM5topieUHilCUpF-eWxs4iHnpIHXd3dCANoLQ1JqQqZ-Q3H0YIeca3-yxnKwfKL99XlIUQEkLVW_Nwt_viIYcGn7pCVWCz2VM2XY_Dt-s17X1Hop2G1YjOIVuU5StArEQEdpnKhnJS0b1-iDtaDb1JIfo866iEbbryIaGcTSBYBik_kSlTD&s=1
p891
aVhttp://l.facebook.com/l.php?u=http%3A%2F%2Fgeekologie.com%2F2016%2F05%2Fchemtrails-photos-capturing-planes-rainb.php&h=QAQHuYR0C&enc=AZM0gTA-LEsJW7bpeYFew2uCU7iUVi6sNJscLeWjAu4U_VQATXMx80-tGAgNiWUdavrEeaxKw3kbq9CQ835WQUb6KxmwkupwF0iCKHolP0rRtGOgW9kD-vYklodxFx0o4-jO6NljHjf7_dvkj2apeJvcRvs_E8qz4Q8dj_J33lFIp3fBBAZGWs1kJ2sTbeBlBqP0ulaJ0mqYGywDunYZNFtt&s=1
p892
aVhttp://l.facebook.com/l.php?u=http%3A%2F%2Fgeekologie.com%2F2016%2F05%2Fchemtrails-photos-capturing-planes-rainb.php&h=oAQFFjoWy&enc=AZNarMHedvqNmMNc6dQJy4F81pfEQNt65EMOmCdbth2PC7vVGwfIop_Q8sn73Dk2xbRDYkOI3YRtn2TP1wVkMP63U-L9wd1CrCJGCGiYA4uec_5rLLHrqz1gxNWI0rS_Coj8vYtWUNZdSzz8zJ3_3A0QHu7wbwrKGSx2IyNCHkWVSQZfbLrtyk7yFcKuKI8oCmp5AX8MGuqM4N6G_b-Bd_98&s=1
p893
aVhttp://l.facebook.com/l.php?u=http%3A%2F%2Fgeekologie.com%2F2016%2F05%2Fchemtrails-photos-capturing-planes-rainb.php&h=0AQGwtTdyAQF3PXvm7JZ_jD4zhWe7MIWCewTmiT28UxKSog&enc=AZM4tE8YHT8E9ESgf_5z2cLAZOFM-n9WB_mm-TwDvMYytqH8DKzcE8JOVtYm9ogAWBQZUKb2X-moLRo_0Ex4msEzP5xZa-PudAr0vqp5MYLqb9KjQxFQzL_mgn1ehPowyTY6ARD9xqskzhXub8m6HtqCtYYKPhiWNe6zl1kqdRzlBkOU3S9CJhutrurKnPLGR7PhLrzwQyaDYqB9neHGUXZg&s=1
p894
aVhttp://l.facebook.com/l.php?u=http%3A%2F%2Fgeekologie.com%2F2016%2F05%2Fwho-will-win-12-carat-diamond-vs-hydraul.php&h=TAQEbPiw7&enc=AZOZBPoxldrJO7eDC41G-UQH7IFku4nfj7WjSWXp6UD-OmgCLWF1MdMNRN804GNTAPMDTiZldylw1KmGJmlldCIwOjZpymXJAyH1UGT2ub-skF4NdW8VW7Fy75RYlBbQ5W4GxRejeH0IJ7ybmy0QD6JTX-ZKyplloREkPQsaxVhnXBblw_cxUKxYh-WNbIliWJy72nwcJ_8_DJxmJY68byCY&s=1
p895
aVhttp://l.facebook.com/l.php?u=http%3A%2F%2Fgeekologie.com%2F2016%2F05%2Fwho-will-win-12-carat-diamond-vs-hydraul.php&h=lAQGFXosH&enc=AZNjXbA-ndiLORkqgT-iQEwIy6UM4Kv1NFghNugCRvUWPCkf91CzQD_NE6OlBpbaSvIpukKjuqL_EJMjjikNewscoT90MIACZQ9RNIm3vvQHX0JOuA8eh_UYKag6hHxDYSFmmTQeA8EBbOGHBLnXGgsH_HnyG7Jg9pJ_4EEkMLrkE3QKkCAbuHocGkX_MaQHDj9WFaTFJEKSaJQlyJsHF8Gl&s=1
p896
aVhttp://l.facebook.com/l.php?u=http%3A%2F%2Fgeekologie.com%2F2016%2F05%2Fwho-will-win-12-carat-diamond-vs-hydraul.php&h=QAQHuYR0CAQFTWQWaN-1Ny4yycWYWD83fIJxhSVp9EDk9GA&enc=AZNPAm1ikGarfAPwCt5yOgDifE7FXojzb9yKYse0K4pUPHfoFMZI5UM4LQgkWNGIOffFPqYncIF8mV3YKLuWRSNAXBaRraej2HAUoaVJmCbw22rQjEx69MoNspDZJsXmADF4moyoQHtY95bVv40DKgRHf4fu39wcHMFNNiLWYqPBGWq0xWt56JfaQChM5bAD-mCbCd3sx4ijZqtGPJcMYbR_&s=1
p897
aVhttps://pbs.twimg.com/profile_images/1891185028/geekologie-icon-180x180.png
p898
aVhttp://t.co/Tipmb01TtJ
p899
aVhttps://t.co/79qfcv9b0q
p900
aVhttps://t.co/B7aC4tpQOL
p901
aVhttps://t.co/33fyl4t9NX
p902
aVhttps://t.co/gfbpExSKKN
p903
aVhttps://t.co/sZmNG3BT5s
p904
aVhttps://t.co/Xaxbvd9WLM
p905
aVhttps://t.co/vsQ1RUdgWL
p906
aVhttps://t.co/OKnUfiCmSL
p907
aVhttps://t.co/duoTssBBOD
p908
aVhttps://t.co/l1yzTxmO9d
p909
aVhttps://t.co/jt5cnGAiiM
p910
aVhttps://t.co/UwN3KjMIKv
p911
aVhttps://t.co/LxHL5x0QkT
p912
aVhttps://t.co/tdupAXW9qn
p913
aVhttps://t.co/EUm0y4SyIH
p914
aVhttps://t.co/QCjmNKqe3v
p915
aVhttps://t.co/u2k4m0HKIY
p916
aVhttps://t.co/yqT2S2ez2B
p917
aVhttps://t.co/HXwrJAF6NE
p918
aVhttps://t.co/VpuvI2Oh69
p919
aVhttps://t.co/gR2osrVYME
p920
aVhttps://t.co/vZevCLpqlI
p921
aVhttps://t.co/GQPpJE8pSZ
p922
aVhttps://t.co/f1m6yjTjQo
p923
aVhttps://t.co/3qW9t9yV9X
p924
aVhttps://t.co/r5tsEjsHr3
p925
aVhttps://t.co/ZA3XEeioJi
p926
aVhttps://t.co/wPRihpuxiK
p927
aVhttps://t.co/zU4POttIRT
p928
aVhttps://t.co/MEDkOMLti0
p929
aVhttps://t.co/CIZgAvNJM7
p930
aVhttps://t.co/p1lqNlwUXK
p931
aVhttps://t.co/WklIDVV6m4
p932
aVhttps://t.co/45Q4gezlQL
p933
aVhttps://t.co/9YOehUpugg
p934
aVhttps://t.co/Sg2jn6uaCq
p935
aVhttps://t.co/NMH7YOFJly
p936
aVhttps://t.co/4VagtCh7LN
p937
aVhttps://t.co/SNjyuQdxx9
p938
aVhttps://t.co/CKGxRynnB2
p939
aVhttps://t.co/NgkWobzsXD
p940
aVhttps://t.co/gLdPPXBBCy
p941
aVhttps://t.co/z3SRmFkXwG
p942
aVhttps://t.co/QFzgf8TeTY
p943
aVhttps://t.co/XMM2VaB7Jn
p944
aVhttps://t.co/a0uKDgy5cd
p945
aVhttps://t.co/e0NXyyrHUG
p946
aVhttps://t.co/J5JUVDR6zM
p947
aVhttps://t.co/RmfY5leky9
p948
aVhttps://t.co/Pv4ldGN81v
p949
aVhttps://www.google.co.uk/webhp?tab=Xw
p950
aVhttp://www.google.co.uk/imghp?hl=en-GB&tab=Xi
p951
aVhttps://maps.google.co.uk/maps?hl=en-GB&tab=Xl
p952
aVhttps://play.google.com/?hl=en-GB&tab=X8
p953
aVhttps://www.youtube.com/?tab=X1
p954
aVhttps://mail.google.com/mail/?tab=Xm
p955
aVhttps://drive.google.com/?tab=Xo
p956
aVhttps://www.google.com/calendar?tab=Xc
p957
aVhttps://www.google.co.uk/intl/en-GB/options/
p958
aVhttp://www.google.com/intl/en_uk/+/learnmore/forum/
p959
aVhttp://www.google.co.uk/history/optout?hl=en-GB
p960
aVhttps://www.google.com/support/profiles/?p=help_center&hl=en-GB
p961
aVhttps://accounts.google.com/ServiceLogin?service=oz&passive=1209600&continue=https://plus.google.com/%2Bgeekologie?gpsrc%3Dgplp0
p962
aVhttps://www.google.com/intl/en_uk/+/policy/
p963
aVhttps://www.google.com/intl/en_uk/+/policy/content.html
p964
aVhttps://www.google.com/intl/en_uk/help/terms_maps.html
p965
aVhttp://geekologie.com/2014/09/meanwhile-in-russia-spongebob-and-mickey.php
p966
aVhttps://www.youtube.com/watch?v=eR1GZd533EI&nohtml5=False
p967
aVhttp://geekologie.com/2014/08/star-wars-podracing-jetskiing-through-wa.php
p968
aVhttp://geekologie.com/2014/08/batman-spotted-w-custom-trike-on-japanes.php
p969
aVhttp://geekologie.com/2014/08/blackmail-material-dad-secretly-films-da.php
p970
aVhttp://geekologie.com/2014/08/goldeneye-007-remote-promixity-mine-belt.php
p971
aVhttp://geekologie.com/2014/08/good-ideas-date-rape-drug-detecting-fing.php
p972
aVhttp://geekologie.com/2014/08/lets-play-rescue-the-princess-3-d-printe.php
p973
aVhttp://geekologie.com/2014/08/couple-paint-sons-room-to-look-like-mine.php
p974
aVhttp://geekologie.com/2014/08/impressively-made-star-wars-episode-vii.php
p975
aVhttp://geekologie.com/2014/08/action-comics-1-sells-for-record-32-mill.php
p976
aVhttp://geekologie.com/2014/08/another-day-another-custom-star-wars-hom.php
p977
aVhttp://geekologie.com/2014/08/dad-adds-action-movie-special-effects-to.php
p978
aVhttp://facebook.com/geekologie
p979
aVhttp://geekologie.com/mt/mt-search.cgi?blog_id=1&tag=everybody%20needs%20a%20hobby&limit=20
p980
aVhttp://geekologie.com/mt/mt-search.cgi?blog_id=1&tag=hello%3F%20HELLO%3F&limit=20
p981
aVhttp://geekologie.com/mt/mt-search.cgi?blog_id=1&tag=instruments&limit=20
p982
aVhttp://geekologie.com/mt/mt-search.cgi?blog_id=1&tag=it%27s%20friday%20friday%20gotta%20get%20down%20on%20friday&limit=20
p983
aVhttp://geekologie.com/mt/mt-search.cgi?blog_id=1&tag=making%20beautiful%20music%20together&limit=20
p984
aVhttp://geekologie.com/mt/mt-search.cgi?blog_id=1&tag=move%20over%20and%20let%20me%20play%20you%20a%20little%20something%20i%20like%20to%20call%20old%20macdonald%20had%20a%20farm&limit=20
p985
aVhttp://geekologie.com/mt/mt-search.cgi?blog_id=1&tag=phones&limit=20
p986
aVhttp://geekologie.com/mt/mt-search.cgi?blog_id=1&tag=piano&limit=20
p987
aVhttp://geekologie.com/mt/mt-search.cgi?blog_id=1&tag=so%20that%27s%20what%20that%20sounds%20like&limit=20
p988
aVhttp://geekologie.com/mt/mt-search.cgi?blog_id=1&tag=sounds&limit=20
p989
aVhttp://geekologie.com/mt/mt-search.cgi?blog_id=1&tag=sure%20why%20not&limit=20
p990
aVhttp://qiwigames.com/
p991
aVhttps://www.youtube.com/watch?v=Yp5HpjhKHKs
p992
aVhttp://disqus.com
p993
aVhttp://gizmodo.com
p994
aVhttp://paleofuture.gizmodo.com
p995
aVhttp://toyland.gizmodo.com
p996
aVhttp://es.gizmodo.com
p997
aVhttp://io9.gizmodo.com
p998
aVhttp://deadspin.com
p999
aVhttp://gawker.com
p1000
aVhttp://jalopnik.com
p1001
aVhttp://jezebel.com
p1002
aVhttp://kotaku.com
p1003
aVhttp://lifehacker.com
p1004
aVhttp://sploid.gizmodo.com/hearing-the-piano-versions-of-popular-ringtones-is-quit-1777677252#replies
p1005
aVhttp://sploid.gizmodo.com/this-is-the-new-sploid-the-new-blog-from-gawker-media-1480428170
p1006
aVhttps://www.facebook.com/sploidbook
p1007
aVhttp://twitter.com/sploid
p1008
aVhttps://www.youtube.com/channel/UCL2PYID00feXAwdSMHTUHhA
p1009
aVhttps://kinja.com/caseychan
p1010
aVhttps://twitter.com/caseychan
p1011
aVhttp://sploid.gizmodo.com/watch-a-dj-troll-the-heck-out-of-a-crowd-by-screwing-wi-1777471049
p1012
aVhttp://sploid.gizmodo.com/how-stones-are-cut-and-shaped-1777616741
p1013
aVhttp://gizmodo.com/the-world-s-largest-solar-plant-just-torched-itself-1777767880
p1014
aVhttp://sploid.gizmodo.com/photoshopped-movies-stills-replaces-guns-with-selfie-st-1777642057
p1015
aVhttp://sploid.gizmodo.com/the-evolution-of-wolverine-in-movies-and-tv-shows-1777580686
p1016
aVhttp://facebook.com/sharer.php?u=POST_URL
p1017
aVhttp://twitter.com/share?text=POST_TITLE&url=POST_URL
p1018
aVhttp://help.gawker.com/
p1019
aVhttp://legal.kinja.com/content-guidelines-90185358
p1020
aVhttp://advertising.gawker.com/about/index.php#contact
p1021
aVhttp://legal.kinja.com/privacy-policy-1750920278
p1022
aVhttp://legal.kinja.com/kinja-terms-of-use-90161644
p1023
aVhttp://advertising.gawker.com/
p1024
aVhttp://gawker.com/careers
p1025
aVhttp://sploid.gizmodo.com/rss
p1026
aVhttp://geekologie.com/2015/07/living-the-dream-tiny-owl-enjoying-his-b.php
p1027
aVhttp://geekologie.com/2015/07/needs-more-brains-walking-dead-gets-an-o.php
p1028
aVhttp://geekologie.com/mt/mt-search.cgi?blog_id=1&tag=8-bit&limit=20
p1029
aVhttp://geekologie.com/mt/mt-search.cgi?blog_id=1&tag=good%20job&limit=20
p1030
aVhttp://geekologie.com/mt/mt-search.cgi?blog_id=1&tag=i%20wish%20i%20could%20play%20instruments&limit=20
p1031
aVhttp://geekologie.com/mt/mt-search.cgi?blog_id=1&tag=impressive&limit=20
p1032
aVhttp://geekologie.com/mt/mt-search.cgi?blog_id=1&tag=multi-track&limit=20
p1033
aVhttp://geekologie.com/mt/mt-search.cgi?blog_id=1&tag=NES&limit=20
p1034
aVhttp://geekologie.com/mt/mt-search.cgi?blog_id=1&tag=nintendo&limit=20
p1035
aVhttp://geekologie.com/mt/mt-search.cgi?blog_id=1&tag=sound%20effects&limit=20
p1036
aVhttp://geekologie.com/mt/mt-search.cgi?blog_id=1&tag=super%20mario&limit=20
p1037
aVhttp://geekologie.com/mt/mt-search.cgi?blog_id=1&tag=theme%20songs&limit=20
p1038
aVhttp://geekologie.com/mt/mt-search.cgi?blog_id=1&tag=video%20games&limit=20
p1039
aVhttp://geekologie.com/2015/04/bluegrass-version-of-the-game-of-thrones.php
p1040
aVhttp://theawesomer.com/super-mario-bros-3-sound-fx/329916/
p1041
aVhttp://geekologie.com/2015/11/hard-work-and-dedication-guy-sets-new-su.php
p1042
aVhttp://geekologie.com/2014/06/game-of-thrones-theme-on-chiptunes-ninte.php
p1043
aVhttp://geekologie.com/2014/04/mario-bros-themes-performed-on-48-wine-g.php
p1044
aVhttp://geekologie.com/2016/03/i-see-what-you-did-there-aw-cream-soda-h.php
p1045
aVhttp://geekologie.com/2016/03/teddy-bear-sex-toy-now-a-real-product-yo.php
p1046
aVhttp://geekologie.com/mt/mt-search.cgi?blog_id=1&tag=getting%20creative&limit=20
p1047
aVhttp://geekologie.com/mt/mt-search.cgi?blog_id=1&tag=guitar&limit=20
p1048
aVhttp://geekologie.com/mt/mt-search.cgi?blog_id=1&tag=interesting&limit=20
p1049
aVhttp://geekologie.com/mt/mt-search.cgi?blog_id=1&tag=moving%20on&limit=20
p1050
aVhttp://geekologie.com/mt/mt-search.cgi?blog_id=1&tag=still%20thank%20god%20guitars%20do%20have%20strings%20amirite%3F&limit=20
p1051
aVhttp://geekologie.com/mt/mt-search.cgi?blog_id=1&tag=we%27re%20getting%20the%20band%20back%20together&limit=20
p1052
aVhttp://geekologie.com/mt/mt-search.cgi?blog_id=1&tag=we%27re%20on%20a%20mission%20from%20god&limit=20
p1053
aVhttp://laughingsquid.com/musician-performs-an-incredible-solo-on-a-bass-guitar-without-any-strings/
p1054
aVhttp://theatheistgirl.tumblr.com/
p1055
aVhttp://geekologie.com/2015/09/guy-builds-himself-a-functional-game-boy.php
p1056
aVhttp://geekologie.com/2016/03/rage-against-the-machines-killing-in-the.php
p1057
aVhttp://geekologie.com/2016/02/star-wars-imperial-march-in-a-major-key.php
p1058
aVhttp://geekologie.com/2015/05/dad-adds-super-mario-effects-to-his-kid.php
p1059
aVhttp://geekologie.com/2015/05/puke-everywhere-preview-of-the-new-4d-ba.php
p1060
aVhttp://geekologie.com/mt/mt-search.cgi?blog_id=1&tag=bigger%20is%20not%20always%20better&limit=20
p1061
aVhttp://geekologie.com/mt/mt-search.cgi?blog_id=1&tag=giant&limit=20
p1062
aVhttp://geekologie.com/mt/mt-search.cgi?blog_id=1&tag=goodness%20gracious&limit=20
p1063
aVhttp://geekologie.com/mt/mt-search.cgi?blog_id=1&tag=holy%20smokes&limit=20
p1064
aVhttp://geekologie.com/mt/mt-search.cgi?blog_id=1&tag=large&limit=20
p1065
aVhttp://geekologie.com/mt/mt-search.cgi?blog_id=1&tag=music&limit=20
p1066
aVhttp://geekologie.com/mt/mt-search.cgi?blog_id=1&tag=real%20things&limit=20
p1067
aVhttp://geekologie.com/mt/mt-search.cgi?blog_id=1&tag=strings&limit=20
p1068
aVhttp://geekologie.com/mt/mt-search.cgi?blog_id=1&tag=they%27ll%20never%20let%20me%20take%20that%20on%20plane%21&limit=20
p1069
aVhttp://geekologie.com/mt/mt-search.cgi?blog_id=1&tag=wood%20is%20good&limit=20
p1070
aVhttp://laughingsquid.com/the-octobasse-an-enormous-string-instrument-capable-of-playing-frequencies-lower-than-humans-can-hear/
p1071
aVhttp://www.deigratia.net
p1072
aVhttp://geekologie.com/2015/12/thrasher-metal-a-guitar-made-from-a-skat.php
p1073
aVhttp://geekologie.com/2016/03/beautiful-nirvanas-smells-like-teen-spir.php
p1074
aVhttp://geekologie.com/2016/02/weird-minimally-designed-titanium-electr.php
p1075
aVhttp://geekologie.com/mt/mt-search.cgi?blog_id=1&tag=cool&limit=20
p1076
aVhttp://geekologie.com/mt/mt-search.cgi?blog_id=1&tag=drone&limit=20
p1077
aVhttp://geekologie.com/mt/mt-search.cgi?blog_id=1&tag=heck%20yeah&limit=20
p1078
aVhttp://geekologie.com/mt/mt-search.cgi?blog_id=1&tag=i%20have%20a%20plate%20and%20six%20screws%20in%20my%20left%20arm%20does%20that%20get%20me%20any%20cyborg%20street%20cred%20or%20what%3F&limit=20
p1079
aVhttp://geekologie.com/mt/mt-search.cgi?blog_id=1&tag=metal&limit=20
p1080
aVhttp://geekologie.com/mt/mt-search.cgi?blog_id=1&tag=prosthetic&limit=20
p1081
aVhttp://geekologie.com/mt/mt-search.cgi?blog_id=1&tag=sweet%20arm&limit=20
p1082
aVhttp://geekologie.com/mt/mt-search.cgi?blog_id=1&tag=the%20future%20is%20now&limit=20
p1083
aVhttp://geekologie.com/mt/mt-search.cgi?blog_id=1&tag=usb&limit=20
p1084
aVhttps://www.facebook.com/thealternativelimbproject
p1085
aVhttps://twitter.com/Altlimbpro
p1086
aVhttps://www.linkedin.com/pub/sophie-de-oliveira-barata/65/6a3/95
p1087
aVhttp://www.thealternativelimbproject.com/
p1088
aVhttp://www.thealternativelimbproject.com/about/
p1089
aVhttp://www.thealternativelimbproject.com/about/the-alternative-limb-project/
p1090
aVhttp://www.thealternativelimbproject.com/about/about-sophie/
p1091
aVhttp://www.thealternativelimbproject.com/about/studio/
p1092
aVhttp://www.thealternativelimbproject.com/types/alternative-limbs/
p1093
aVhttp://www.thealternativelimbproject.com/viktoria-modesta/
p1094
aVhttp://www.thealternativelimbproject.com/project/anatomical-leg/
p1095
aVhttp://www.thealternativelimbproject.com/project/snake-arm/
p1096
aVhttp://www.thealternativelimbproject.com/project/floral-porcelain-leg/
p1097
aVhttp://www.thealternativelimbproject.com/project/stephanie-reid/
p1098
aVhttp://www.thealternativelimbproject.com/project/gadget-arm/
p1099
aVhttp://www.thealternativelimbproject.com/project/priscilla/
p1100
aVhttp://www.thealternativelimbproject.com/project/bloomsbury-droid/
p1101
aVhttp://www.thealternativelimbproject.com/project/feather-armour/
p1102
aVhttp://www.thealternativelimbproject.com/fullscreen/realistic-limbs/
p1103
aVhttp://www.thealternativelimbproject.com/press/
p1104
aVhttp://www.thealternativelimbproject.com/contact/
p1105
aVhttp://www.thealternativelimbproject.com/project/crystal-leg/
p1106
aVhttp://www.thealternativelimbproject.com/project/
p1107
aVhttp://www.thealternativelimbproject.com/wp-content/uploads/2016/03/AltLimbPro_10_0095.jpg
p1108
aVhttp://www.thealternativelimbproject.com/wp-content/uploads/2016/03/AltLimbPro_10_0301.jpg
p1109
aVhttp://www.thealternativelimbproject.com/wp-content/uploads/2016/03/AltLimbPro_110064.jpg
p1110
aVhttp://www.thealternativelimbproject.com/wp-content/uploads/2016/03/AltLimbPro_110175.jpg
p1111
aVhttp://www.thealternativelimbproject.com/wp-content/uploads/2016/03/AltLimbPro_110240.jpg
p1112
aVhttps://uk.games.konami-europe.com/games/Metal-Gear-Solid-V-The-Phantom-Pain
p1113
aVhttp://jamesahy.com/
p1114
aVhttp://www.openbionics.com
p1115
aVhttp://www.gtr.gb.com
p1116
aVhttp://polygonaltree.co.uk/
p1117
aVhttp://www.nealpetty.co.uk
p1118
aVhttp://rudikolenc.co.uk/
p1119
aVhttp://www.mobulair.co.uk
p1120
aVhttp://www.independent.co.uk/news/science/metal-gear-solid-prosthetics-arm-amputee-james-young-hi-tech-synthetic-limb-a6887071.html
p1121
aVhttp://www.polygon.com/features/2016/2/19/10966874/metal-gear-solid-5-bionic-arm-konami
p1122
aVhttp://www.disclose.tv/action/viewvideo/222909/body_hacking_advanced_bionics/
p1123
aVhttp://thephantomlimbproject.com/
p1124
aVhttp://www.facebook.com/sharer.php?u=http://www.thealternativelimbproject.com/project/phantom-limb/&t=Phantom Limb
p1125
aVhttp://twitter.com/home?status=Phantom Limb+http://www.thealternativelimbproject.com/project/phantom-limb/
p1126
aVhttps://plus.google.com/share?url=http://www.thealternativelimbproject.com/project/phantom-limb/
p1127
aVhttp://pinterest.com/pin/create/bookmarklet/?media=http://www.thealternativelimbproject.com/wp-content/uploads/2016/03/AltLimbPro_110064.jpg&url=http://www.thealternativelimbproject.com/project/phantom-limb/&is_video=false&description=Phantom Limb
p1128
aVhttp://geekologie.com/2010/09/lolwut-california-police-issue.php
p1129
aVhttp://geekologie.com/2010/09/this-aint-your-grandmas-quadri.php
p1130
aVhttp://geekologie.com/mt/mt-search.cgi?blog_id=1&tag=clear%20guns%21&limit=20
p1131
aVhttp://geekologie.com/mt/mt-search.cgi?blog_id=1&tag=elemental&limit=20
p1132
aVhttp://geekologie.com/mt/mt-search.cgi?blog_id=1&tag=elements&limit=20
p1133
aVhttp://geekologie.com/mt/mt-search.cgi?blog_id=1&tag=impressive%20feat&limit=20
p1134
aVhttp://geekologie.com/mt/mt-search.cgi?blog_id=1&tag=magic&limit=20
p1135
aVhttp://geekologie.com/mt/mt-search.cgi?blog_id=1&tag=metal%20ceiling&limit=20
p1136
aVhttp://geekologie.com/mt/mt-search.cgi?blog_id=1&tag=metal%20is%20cold&limit=20
p1137
aVhttp://geekologie.com/mt/mt-search.cgi?blog_id=1&tag=science&limit=20
p1138
aVhttp://geekologie.com/mt/mt-search.cgi?blog_id=1&tag=science%20never%20ceases%20to%20amaze%20me&limit=20
p1139
aVhttp://geekologie.com/mt/mt-search.cgi?blog_id=1&tag=scientists&limit=20
p1140
aVhttp://geekologie.com/mt/mt-search.cgi?blog_id=1&tag=wtf%21&limit=20
p1141
aVhttp://www.geekologie.com/2010/01/seethrough_laptop_screen_is_se.php
p1142
aVhttp://www.geekologie.com/2010/08/you_went_to_school_for_that_sc.php
p1143
aVhttp://dornob.com/transparent-aluminum-glass-like-see-through-metal/
p1144
aVhttp://geekologie.com/2012/06/scientists-plan-to-hack-stephen-hawkings.php
p1145
aVhttp://geekologie.com/2011/02/the-ol-gallium-spoon-in-a-cup.php
p1146
aVhttp://geekologie.com/2015/05/what-sort-of-sorcery-is-this-3d-hydrogra.php
p1147
aVhttp://geekologie.com/2016/03/bye-florida-global-warming-heat-activate.php
p1148
aVhttp://geekologie.com/2016/03/i-am-into-this-crushing-things-with-a-hy.php
p1149
aVhttp://geekologie.com/mt/mt-search.cgi?blog_id=1&tag=doing%20the%20job&limit=20
p1150
aVhttp://geekologie.com/mt/mt-search.cgi?blog_id=1&tag=how%20much%20is%20one%20of%20these%20i%27m%20thinking%20about%20opening%20up%20a%20rust%20removal%20business&limit=20
p1151
aVhttp://geekologie.com/mt/mt-search.cgi?blog_id=1&tag=it%27s%20better%20to%20burn%20out%20than%20it%20is%20to%20rust&limit=20
p1152
aVhttp://geekologie.com/mt/mt-search.cgi?blog_id=1&tag=lasers&limit=20
p1153
aVhttp://geekologie.com/mt/mt-search.cgi?blog_id=1&tag=neato&limit=20
p1154
aVhttp://geekologie.com/mt/mt-search.cgi?blog_id=1&tag=rust&limit=20
p1155
aVhttp://geekologie.com/mt/mt-search.cgi?blog_id=1&tag=suck%20it%20rust&limit=20
p1156
aVhttp://geekologie.com/mt/mt-search.cgi?blog_id=1&tag=the%20future&limit=20
p1157
aVhttp://geekologie.com/mt/mt-search.cgi?blog_id=1&tag=you%20know%20how%20i%20feel%20about%20lasers&limit=20
p1158
aVhttp://www.thetrevorproject.org/
p1159
aVhttp://geekologie.com/2016/03/impressive-real-time-face-capture-and-re.php
p1160
aVhttp://geekologie.com/2015/12/neato-pouring-molten-aluminum-into-an-aq.php
p1161
aVhttp://geekologie.com/2015/10/lego-doctor-who-tardis-available-this-de.php
p1162
aVhttp://geekologie.com/2015/10/nope-chinas-glass-bottomed-bridge-alread.php
p1163
aVhttp://geekologie.com/mt/mt-search.cgi?blog_id=1&tag=animation&limit=20
p1164
aVhttp://geekologie.com/mt/mt-search.cgi?blog_id=1&tag=bands&limit=20
p1165
aVhttp://geekologie.com/mt/mt-search.cgi?blog_id=1&tag=black%20sabbath&limit=20
p1166
aVhttp://geekologie.com/mt/mt-search.cgi?blog_id=1&tag=cartoons&limit=20
p1167
aVhttp://geekologie.com/mt/mt-search.cgi?blog_id=1&tag=damn%20spongebob%20you%20hardcore%21&limit=20
p1168
aVhttp://geekologie.com/mt/mt-search.cgi?blog_id=1&tag=editing%20things&limit=20
p1169
aVhttp://geekologie.com/mt/mt-search.cgi?blog_id=1&tag=rocking%20out&limit=20
p1170
aVhttp://geekologie.com/mt/mt-search.cgi?blog_id=1&tag=singing&limit=20
p1171
aVhttp://geekologie.com/mt/mt-search.cgi?blog_id=1&tag=spongebob&limit=20
p1172
aVhttp://geekologie.com/mt/mt-search.cgi?blog_id=1&tag=things%20that%20look%20like%20other%20things&limit=20
p1173
aVhttp://theawesomer.com/spongebob-sings-black-sabbath/339341/
p1174
aVhttps://www.youtube.com/channel/UCZcfj38H60v3LQvqqPgXXKA
p1175
aVhttp://ehoov9kae.blogspot.co.uk
p1176
aVhttp://geekologie.com/2016/03/man-creates-dragon-ball-z-animation-usin.php
p1177
aVhttp://geekologie.com/2016/02/amazingly-detailed-alice-in-wonderland-i.php
p1178
aVhttp://geekologie.com/2016/02/man-performs-impressive-metal-song-on-a.php
p1179
aVhttp://geekologie.com/mt/mt-search.cgi?blog_id=1&tag=admittedly%20one-player%20mode%20was%20pretty%20sad&limit=20
p1180
aVhttp://geekologie.com/mt/mt-search.cgi?blog_id=1&tag=beats%20going%20to%20the%20gym&limit=20
p1181
aVhttp://geekologie.com/mt/mt-search.cgi?blog_id=1&tag=exercise&limit=20
p1182
aVhttp://geekologie.com/mt/mt-search.cgi?blog_id=1&tag=health&limit=20
p1183
aVhttp://geekologie.com/mt/mt-search.cgi?blog_id=1&tag=oh%20goodness&limit=20
p1184
aVhttp://geekologie.com/mt/mt-search.cgi?blog_id=1&tag=oh%20my&limit=20
p1185
aVhttp://geekologie.com/mt/mt-search.cgi?blog_id=1&tag=real%20things%20that%20exist&limit=20
p1186
aVhttp://geekologie.com/mt/mt-search.cgi?blog_id=1&tag=rythym%20games&limit=20
p1187
aVhttp://geekologie.com/mt/mt-search.cgi?blog_id=1&tag=safety%20first&limit=20
p1188
aVhttp://geekologie.com/mt/mt-search.cgi?blog_id=1&tag=thanks%20internet%21&limit=20
p1189
aVhttp://geekologie.com/mt/mt-search.cgi?blog_id=1&tag=thrusting%20and%20pumping%20and%20getting%20sweaty%20and%20all%20that&limit=20
p1190
aVhttp://geekologie.com/mt/mt-search.cgi?blog_id=1&tag=whatever%20works&limit=20
p1191
aVhttp://geekologie.com/mt/mt-search.cgi?blog_id=1&tag=wrap%20it%20up&limit=20
p1192
aVhttps://media.makeameme.org/created/sigh-youre-no.jpg
p1193
aVhttp://25.media.tumblr.com/a8fa14ee94254deedd74bdbb33dcaa49/tumblr_mk42uiamZt1s6xlpco1_500.gif
p1194
aVhttp://dailyjobsnews.eu.ki/
p1195
aVhttp://mashable.france24.com/?ns_campaign=mashablefr&ns_source=mashnav
p1196
aVhttps://twitter.com/mashable
p1197
aVhttps://plus.google.com/+Mashable/auto
p1198
aVhttp://www.pinterest.com/Mashable/
p1199
aVhttp://feeds.mashable.com/Mashable
p1200
aVhttp://shop.mashable.com?utm_source=mashable&utm_medium=nav
p1201
aVhttp://www.wrightsmedia.com/sites/mashable/
p1202
aVhttp://mashable.theresumator.com/
p1203
aVhttps://itunes.apple.com/us/app/mashable/id910775754?mt=8
p1204
aVhttps://play.google.com/store/apps/details?id=com.mashable.android.phoenix
p1205
aVhttp://findjobs.mashable.com
p1206
aVhttp://mashable.com/sgs/
p1207
aVhttps://twitter.com/intent/follow?region=follow_link&screen_name=mashable&tw_p=followbutton&variant=2.0
p1208
aVhttps://twitter.com/intent/tweet?original_referer=http://mashable.com/&source=tweetbutton&text=PornHub%27s+%27Bangfit%27+program+uses+sexy+exercise+to+build+muscle&url=http%3A%2F%2Fmashable.com%2F2016%2F05%2F18%2Fpornhub-sexercise-app%2F&via=mashable
p1209
aVhttp://www.bang.fit/#/home
p1210
aVhttp://mashable.com/2016/05/16/mike-webb-porn-tabs/
p1211
aVhttp://www.facebook.com/mashable/
p1212
aVhttps://plus.google.com/+Mashable
p1213
aVhttp://pinterest.com/mashable/
p1214
aVhttp://www.youtube.com/user/mashable
p1215
aVhttp://www.stumbleupon.com/channel/Mashable
p1216
aVhttp://www.linkedin.com/today/mashable.com
p1217
aVhttp://www.codeandtheory.com
p1218
aVhttp://geekologie.com/2016/02/i-chews-you-south-korean-fried-pikachu-p.php
p1219
aVhttp://geekologie.com/2016/02/happier-times-han-solo-leia-and-ben-fami.php
p1220
aVhttp://geekologie.com/mt/mt-search.cgi?blog_id=1&tag=adult%20toys&limit=20
p1221
aVhttp://geekologie.com/mt/mt-search.cgi?blog_id=1&tag=different%20strokes%20for%20different%20folks&limit=20
p1222
aVhttp://geekologie.com/mt/mt-search.cgi?blog_id=1&tag=fortune%20telling&limit=20
p1223
aVhttp://geekologie.com/mt/mt-search.cgi?blog_id=1&tag=i%20am%20so%20happy%20this%20exists&limit=20
p1224
aVhttp://geekologie.com/mt/mt-search.cgi?blog_id=1&tag=i%27m%20twelve%20and%20what%20is%20this&limit=20
p1225
aVhttp://geekologie.com/mt/mt-search.cgi?blog_id=1&tag=i%27ve%20seen%20it%20all%20now&limit=20
p1226
aVhttp://geekologie.com/mt/mt-search.cgi?blog_id=1&tag=miss%20cleo&limit=20
p1227
aVhttp://geekologie.com/mt/mt-search.cgi?blog_id=1&tag=predicting%20the%20future&limit=20
p1228
aVhttp://geekologie.com/mt/mt-search.cgi?blog_id=1&tag=thanks%20internet&limit=20
p1229
aVhttp://geekologie.com/mt/mt-search.cgi?blog_id=1&tag=that%20is%20great&limit=20
p1230
aVhttp://geekologie.com/mt/mt-search.cgi?blog_id=1&tag=what%20took%20so%20long%3F&limit=20
p1231
aVhttps://www.etsy.com/listing/267283304/magic-8-ball-fortune-telling-butt-plug
p1232
aVhttps://www.etsy.com/shop/GlowFyourself?ref=listing-shop-header-item-count
p1233
aVhttp://CapnsKustomWorks.etsy.com
p1234
aVhttp://ak-hdl.buzzfed.com/static/2015-06/10/12/enhanced/webdr10/anigif_enhanced-buzz-7205-1433954829-7.gif
p1235
aVhttp://geekologie.com/2016/03/oh-goodness-i-scream-an-ice-cream-cone-v.php
p1236
aVhttp://geekologie.com/2016/03/benedict-cumberpatch-head-easter-bunny-c.php
p1237
aVhttp://geekologie.com/2016/02/okaaaaay-a-mouse-pad-that-feels-like-a-p.php
p1238
aVhttp://geekologie.com/2016/03/close-calls-roadside-reporter-saved-from.php
p1239
aVhttp://geekologie.com/2016/03/flying-underwater-with-a-subwing-or-bein.php
p1240
aVhttp://geekologie.com/mt/mt-search.cgi?blog_id=1&tag=burn%20baby%20burn&limit=20
p1241
aVhttp://geekologie.com/mt/mt-search.cgi?blog_id=1&tag=fire%20in%20the%20hole%21&limit=20
p1242
aVhttp://geekologie.com/mt/mt-search.cgi?blog_id=1&tag=heck%20yeah%20i%20need%20these%20everywhere%20i%20am%20like%20a%20fire%20magnet&limit=20
p1243
aVhttp://geekologie.com/mt/mt-search.cgi?blog_id=1&tag=poof%21&limit=20
p1244
aVhttp://geekologie.com/mt/mt-search.cgi?blog_id=1&tag=that%27s%20cool&limit=20
p1245
aVhttp://geekologie.com/mt/mt-search.cgi?blog_id=1&tag=why%20extinguish%20a%20fire%20when%20you%20can%20make%20it%20bigger%3F&limit=20
p1246
aVhttp://geekologie.com/mt/mt-search.cgi?blog_id=1&tag=you%20know%20how%20i%20feel%20about%20fire&limit=20
p1247
aVhttp://sploid.gizmodo.com/this-ball-of-magic-instantly-extinguishes-any-fire-1764142643
p1248
aVhttp://geekologie.com/2011/04/making-fighting-fires-fun-agai.php
p1249
aVhttp://www.marijnvandenheuvel.com
p1250
aVhttp://geekologie.com/2011/01/slowmotion-video-of-match-head.php
p1251
aVhttp://geekologie.com/2016/04/two-dudes-playing-a-giant-game-of-flamin.php
p1252
aVhttp://geekologie.com/2016/03/this-tastes-like-burning-electric-fork-t.php
p1253
aVhttp://geekologie.com/2015/06/guy-spends-6-years-crocheting-super-mari.php
p1254
aVhttp://geekologie.com/2015/06/to-the-batcave-batmobile-inspired-motorc.php
p1255
aVhttp://geekologie.com/mt/mt-search.cgi?blog_id=1&tag=armor&limit=20
p1256
aVhttp://geekologie.com/mt/mt-search.cgi?blog_id=1&tag=condoms&limit=20
p1257
aVhttp://geekologie.com/mt/mt-search.cgi?blog_id=1&tag=disease&limit=20
p1258
aVhttp://geekologie.com/mt/mt-search.cgi?blog_id=1&tag=inventing%20things&limit=20
p1259
aVhttp://geekologie.com/mt/mt-search.cgi?blog_id=1&tag=jimmy%20hats&limit=20
p1260
aVhttp://geekologie.com/mt/mt-search.cgi?blog_id=1&tag=penis%20coats&limit=20
p1261
aVhttp://geekologie.com/mt/mt-search.cgi?blog_id=1&tag=prevention%20is%20key&limit=20
p1262
aVhttp://geekologie.com/mt/mt-search.cgi?blog_id=1&tag=rubber&limit=20
p1263
aVhttp://geekologie.com/mt/mt-search.cgi?blog_id=1&tag=so%20if%20it%20starts%20glowing%20like%20a%20rainbow%20that%27s%20bad%3F&limit=20
p1264
aVhttp://geekologie.com/mt/mt-search.cgi?blog_id=1&tag=stay%20safe&limit=20
p1265
aVhttp://geekologie.com/mt/mt-search.cgi?blog_id=1&tag=yeah%20but%20what%20if%20you%20have%20more%20than%20one%20of%20those%20diseases%3F%20does%20it%20turn%20brown%3F&limit=20
p1266
aVhttp://europe.newsweek.com/uk-teenagers-invent-condoms-that-change-colour-if-you-have-sti-329211
p1267
aVhttp://www.thelackof.com
p1268
aVhttp://www.lolgifs.net
p1269
aVhttp://geekologie.com/2012/02/qr-coded-condoms-encourage-wrapping-it-u.php
p1270
aVhttp://geekologie.com/2014/05/just-the-tip-adhesive-condom-only-covers.php
p1271
aVhttp://geekologie.com/2013/04/okay-new-flexi-hose-origami-condom-desig.php
p1272
aVhttp://geekologie.com/mt/mt-search.cgi?blog_id=1&tag=augmented%20reality&limit=20
p1273
aVhttp://geekologie.com/mt/mt-search.cgi?blog_id=1&tag=cannot%20compute&limit=20
p1274
aVhttp://geekologie.com/mt/mt-search.cgi?blog_id=1&tag=dear%20lord&limit=20
p1275
aVhttp://geekologie.com/mt/mt-search.cgi?blog_id=1&tag=error%20error%20error&limit=20
p1276
aVhttp://geekologie.com/mt/mt-search.cgi?blog_id=1&tag=i%27m%20not%20sure%20how%20i%20feel%20about%20this&limit=20
p1277
aVhttp://geekologie.com/mt/mt-search.cgi?blog_id=1&tag=intense&limit=20
p1278
aVhttp://geekologie.com/mt/mt-search.cgi?blog_id=1&tag=losing%20your%20mind&limit=20
p1279
aVhttp://geekologie.com/mt/mt-search.cgi?blog_id=1&tag=oh%20wow&limit=20
p1280
aVhttp://geekologie.com/mt/mt-search.cgi?blog_id=1&tag=sensory%20overload&limit=20
p1281
aVhttp://geekologie.com/mt/mt-search.cgi?blog_id=1&tag=that%20was%20too%20much%20for%20me&limit=20
p1282
aVhttp://geekologie.com/mt/mt-search.cgi?blog_id=1&tag=that%27s%20too%20much&limit=20
p1283
aVhttp://geekologie.com/mt/mt-search.cgi?blog_id=1&tag=what%20the%20hell%20is%20going%20on&limit=20
p1284
aVhttp://hedonistica.com/art-and-design/everything-remix-force-awakens/
p1285
aVhttp://hedonistica.com/art-and-design/googles-modular-smartphone-project-ara/
p1286
aVhttp://hedonistica.com/art-and-design/pov-on-valravn/
p1287
aVhttp://hedonistica.com/art-and-design/magnets-and-marbles/
p1288
aVhttp://hedonistica.com/movies/star-wars-episode-v-empire-strikes-back-homage/
p1289
aVhttp://hedonistica.com/art-and-design/evolution-spider-man-television-film/
p1290
aVhttp://hedonistica.com/art-and-design/paper-video-games/
p1291
aVhttp://geekologie.com/2016/03/jump-rope-displays-jump-count-in-air-whi.php
p1292
aVhttp://geekologie.com/2016/03/kylo-ren-added-to-a-bunch-of-movies-he-wasnt-in.php
p1293
aVhttp://geekologie.com/mt/mt-search.cgi?blog_id=1&tag=brutal&limit=20
p1294
aVhttp://geekologie.com/mt/mt-search.cgi?blog_id=1&tag=dear%20god&limit=20
p1295
aVhttp://geekologie.com/mt/mt-search.cgi?blog_id=1&tag=fight%21%20fight%21%20fight%21&limit=20
p1296
aVhttp://geekologie.com/mt/mt-search.cgi?blog_id=1&tag=getting%20your%20shit%20handed%20to%20you&limit=20
p1297
aVhttp://geekologie.com/mt/mt-search.cgi?blog_id=1&tag=hurting%20and%20bleeding&limit=20
p1298
aVhttp://geekologie.com/mt/mt-search.cgi?blog_id=1&tag=i%20was%20unware%20of%20this&limit=20
p1299
aVhttp://geekologie.com/mt/mt-search.cgi?blog_id=1&tag=just%20like%20a%20good%20old%20fashioned%20bar%20brawl%20%28but%20with%20far%20fewer%20broken%20bottles%29&limit=20
p1300
aVhttp://geekologie.com/mt/mt-search.cgi?blog_id=1&tag=mma&limit=20
p1301
aVhttp://geekologie.com/mt/mt-search.cgi?blog_id=1&tag=punching%20and%20kicking%20each%20other&limit=20
p1302
aVhttp://geekologie.com/mt/mt-search.cgi?blog_id=1&tag=so%20that%27s%20a%20real%20thing&limit=20
p1303
aVhttps://www.youtube.com/channel/UCZ_7W-4CZC1m3uEvX9ISFlw
p1304
aVhttps://youtu.be/OmZOZjHjT5E
p1305
aVhttp://geekologie.com/2016/04/an-hour-and-45-minutes-of-every-mortal-k.php
p1306
aVhttp://geekologie.com/2016/02/internet-i-love-you-an-angry-crab-waving.php
p1307
aVhttp://geekologie.com/2016/02/thanks-internet-a-very-wtf-kazoo-kid-tra.php
p1308
aVhttp://geekologie.com/2016/03/burn-everything-man-reveals-giant-predat.php
p1309
aVhttp://geekologie.com/2016/03/damn-richer-people-a-55-million-personal.php
p1310
aVhttp://geekologie.com/mt/mt-search.cgi?blog_id=1&tag=and%20i%20thought%20mont%20blanc%20were%20expensive&limit=20
p1311
aVhttp://geekologie.com/mt/mt-search.cgi?blog_id=1&tag=damn%20rich%20people&limit=20
p1312
aVhttp://geekologie.com/mt/mt-search.cgi?blog_id=1&tag=expensive&limit=20
p1313
aVhttp://geekologie.com/mt/mt-search.cgi?blog_id=1&tag=here%20write%20this%20--%20%27i%27m%20too%20rich%27&limit=20
p1314
aVhttp://geekologie.com/mt/mt-search.cgi?blog_id=1&tag=i%20guess%20you%20need%20a%20nice%20pen%20when%20you%27re%20writing%20million%20dollar%20checks%20all%20day&limit=20
p1315
aVhttp://geekologie.com/mt/mt-search.cgi?blog_id=1&tag=writing%20things&limit=20
p1316
aVhttp://geekologie.com/mt/mt-search.cgi?blog_id=1&tag=you%27ve%20got%20to%20be%20kidding%20me&limit=20
p1317
aVhttp://www.gizmag.com/richard-mille-rms-05-fountain-pen/42054/
p1318
aVhttp://www.ohgizmo.com/2016/02/29/behold-the-richard-mille-rms05-105000-fountain-pen/
p1319
aVhttp://renegadeexplosion.blogspot.com/
p1320
aVhttp://geekologie.com/2016/04/too-much-12000-lamborghini-carbon-fiber.php
p1321
aVhttp://geekologie.com/2013/12/was-only-a-mattter-of-time-24k-gold-plat.php
p1322
aVhttp://geekologie.com/2012/11/thats-bigger-than-my-apartment-a-40500-r.php
p1323
aVhttp://geekologie.com/2014/04/what-the-reverse-of-album-covers-might-l.php
p1324
aVhttp://geekologie.com/2014/04/tying-the-spaceship-together-rugs-printe.php
p1325
aVhttp://geekologie.com/mt/mt-search.cgi?blog_id=1&tag=animals&limit=20
p1326
aVhttp://geekologie.com/mt/mt-search.cgi?blog_id=1&tag=game%20of%20thrones&limit=20
p1327
aVhttp://geekologie.com/mt/mt-search.cgi?blog_id=1&tag=goats&limit=20
p1328
aVhttp://geekologie.com/mt/mt-search.cgi?blog_id=1&tag=GoT&limit=20
p1329
aVhttp://geekologie.com/mt/mt-search.cgi?blog_id=1&tag=i%27ve%20always%20wanted%20a%20goat%20%28honestly%20i%27ve%20wanted%20a%20whole%20farm%20i%20just%20haven%27t%20moved%20into%20the%20country%20yet%29&limit=20
p1330
aVhttp://geekologie.com/mt/mt-search.cgi?blog_id=1&tag=making%20noise&limit=20
p1331
aVhttp://geekologie.com/mt/mt-search.cgi?blog_id=1&tag=seizure%20warning&limit=20
p1332
aVhttp://geekologie.com/mt/mt-search.cgi?blog_id=1&tag=theme%20song&limit=20
p1333
aVhttp://geekologie.com/mt/mt-search.cgi?blog_id=1&tag=themes&limit=20
p1334
aVhttp://geekologie.com/mt/mt-search.cgi?blog_id=1&tag=welcome%20to%20the%20internet&limit=20
p1335
aVhttp://geekologie.com/mt/mt-search.cgi?blog_id=1&tag=wtf%20did%20i%20just%20watch&limit=20
p1336
aVhttps://www.youtube.com/watch?v=X6tKZ-cg4RI
p1337
aVhttps://www.youtube.com/watch?v=vEg4SEch27w
p1338
aVhttp://CashCured.CoM
p1339
aVhttp://geekologie.com/2012/08/lord-take-me-now-dog-singing-game-of-thr.php
p1340
aVhttp://geekologie.com/2014/07/the-queens-royal-guard-plays-game-of-thr.php
p1341
aVhttp://geekologie.com/mt/mt-search.cgi?blog_id=1&tag=because%20nothing%20says%20classy%20like%20a%20giant%20beanbag%20chair%20in%20your%20living%20room&limit=20
p1342
aVhttp://geekologie.com/mt/mt-search.cgi?blog_id=1&tag=chairs&limit=20
p1343
aVhttp://geekologie.com/mt/mt-search.cgi?blog_id=1&tag=count%20me%20in&limit=20
p1344
aVhttp://geekologie.com/mt/mt-search.cgi?blog_id=1&tag=heck%20yeah%20i%20just%20found%20my%20new%20gaming%20chair&limit=20
p1345
aVhttp://geekologie.com/mt/mt-search.cgi?blog_id=1&tag=huge&limit=20
p1346
aVhttp://geekologie.com/mt/mt-search.cgi?blog_id=1&tag=interior%20design&limit=20
p1347
aVhttp://geekologie.com/mt/mt-search.cgi?blog_id=1&tag=looks%20comfy&limit=20
p1348
aVhttp://geekologie.com/mt/mt-search.cgi?blog_id=1&tag=napping&limit=20
p1349
aVhttp://geekologie.com/mt/mt-search.cgi?blog_id=1&tag=real%20products%20that%20exist&limit=20
p1350
aVhttp://geekologie.com/mt/mt-search.cgi?blog_id=1&tag=sitting%20on%20things&limit=20
p1351
aVhttp://geekologie.com/mt/mt-search.cgi?blog_id=1&tag=sleeping&limit=20
p1352
aVhttp://geekologie.com/mt/mt-search.cgi?blog_id=1&tag=where%20was%20this%20when%20i%20was%20in%20college&limit=20
p1353
aVhttp://www.dailyfunnies.ca/wp-content/uploads/2013/11/funny-gif-cat-jumps-bean-bag-chair.gif
p1354
aVhttp://geekologie.com/2016/05/prayers-do-get-answered-a-pizza-box-made.php
p1355
aVhttp://geekologie.com/2016/05/youve-gone-too-far-soda-flavored-pop-tar.php
p1356
aVhttp://geekologie.com/mt/mt-search.cgi?blog_id=1&tag=admittedly%20that%20does%20look%20like%20fun&limit=20
p1357
aVhttp://geekologie.com/mt/mt-search.cgi?blog_id=1&tag=i%20am%20into%20this&limit=20
p1358
aVhttp://geekologie.com/mt/mt-search.cgi?blog_id=1&tag=i%20just%20bring%20a%20big%20blue%20tarp%20to%20picnic%20on&limit=20
p1359
aVhttp://geekologie.com/mt/mt-search.cgi?blog_id=1&tag=i%20need%20more%20friends&limit=20
p1360
aVhttp://geekologie.com/mt/mt-search.cgi?blog_id=1&tag=i%20would%20sleep%20in%20that%20so%20hard&limit=20
p1361
aVhttp://geekologie.com/mt/mt-search.cgi?blog_id=1&tag=that%20would%20only%20support%20three%20or%20four%20of%20me&limit=20
p1362
aVhttp://www.incrediblethings.com/products/giant-hammock/
p1363
aVhttp://www.hammacher.com/Product/Default.aspx?sku=12664
p1364
aVhttp://geekologie.com/2016/04/all-the-rage-hidden-cat-head-shave-in-ba.php
p1365
aVhttp://geekologie.com/2016/04/the-earth-is-flat-giant-circular-fleece.php
p1366
aVhttp://geekologie.com/2016/04/the-babe-with-the-power-labyrinth-board.php
p1367
aVhttp://geekologie.com/2016/04/clever-cat-scratchers-that-look-like-fam.php
p1368
aVhttp://geekologie.com/mt/mt-search.cgi?blog_id=1&tag=go-karts&limit=20
p1369
aVhttp://geekologie.com/mt/mt-search.cgi?blog_id=1&tag=having%20a%20great%20time&limit=20
p1370
aVhttp://geekologie.com/mt/mt-search.cgi?blog_id=1&tag=i%20have%20always%20wanted%20to%20go%20on%20a%20cruise%20but%20mostly%20just%20for%20the%20food%20i%20love%20food%20i%20am%20not%20even%20a%20foodie%20i%20just%20love%20eating%20i%20don%27t%20take%20pictures%20of%20anything%20i%20just%20eat%20it&limit=20
p1371
aVhttp://geekologie.com/mt/mt-search.cgi?blog_id=1&tag=mario%20kart&limit=20
p1372
aVhttp://geekologie.com/mt/mt-search.cgi?blog_id=1&tag=vacation&limit=20
p1373
aVhttp://geekologie.com/mt/mt-search.cgi?blog_id=1&tag=what%27s%20next%3F&limit=20
p1374
aVhttp://geekologie.com/mt/mt-search.cgi?blog_id=1&tag=whee%21&limit=20
p1375
aVhttp://theawesomer.com/cruise-ship-go-kart-track/363794/
p1376
aVhttp://geekologie.com/2009/10/for-sale-the-worlds-largest-gu.php
p1377
aVhttp://geekologie.com/2008/11/worlds-largest-cruise-ship-bei.php
p1378
aVhttp://geekologie.com/2016/04/tesla-easter-egg-featuring-mario-karts-r.php
p1379
aVhttp://geekologie.com/2015/07/living-the-dream-a-hot-tub-hammock.php
p1380
aVhttp://geekologie.com/2015/07/man-creates-giant-sculptures-out-of-scra.php
p1381
aVhttp://geekologie.com/mt/mt-search.cgi?blog_id=1&tag=bed&limit=20
p1382
aVhttp://geekologie.com/mt/mt-search.cgi?blog_id=1&tag=bedroom&limit=20
p1383
aVhttp://geekologie.com/mt/mt-search.cgi?blog_id=1&tag=but%20am%20i%20going%20to%20wake%20up%20with%20back%20pain%20that%27s%20the%20real%20question%20%28i%27m%20old%29&limit=20
p1384
aVhttp://geekologie.com/mt/mt-search.cgi?blog_id=1&tag=minion&limit=20
p1385
aVhttp://geekologie.com/mt/mt-search.cgi?blog_id=1&tag=movies&limit=20
p1386
aVhttp://geekologie.com/mt/mt-search.cgi?blog_id=1&tag=no%20but%20seriously%20what%20are%20you%20doing%20this%20is%20not%20how%20this%20photoshoot%20was%20supposed%20to%20go&limit=20
p1387
aVhttp://geekologie.com/mt/mt-search.cgi?blog_id=1&tag=real%20products&limit=20
p1388
aVhttp://geekologie.com/mt/mt-search.cgi?blog_id=1&tag=sleeping%20at%20night&limit=20
p1389
aVhttp://www.chicciho.com/product/minions-super-giant-bed
p1390
aVhttp://internet88.com
p1391
aVhttp://WorkToday80.com
p1392
aVhttp://geekologie.com/2015/12/slumber-party-bed-frame-with-integrated.php
p1393
aVhttp://geekologie.com/2014/11/lettuce-sleep-in-peace-the-cheeseburger.php
p1394
aVhttp://geekologie.com/2014/08/great-ill-be-hungry-all-night-giant-fren.php
p1395
aVhttp://geekologie.com/mt/mt-search.cgi?blog_id=1&tag=challenge%20accepted&limit=20
p1396
aVhttp://geekologie.com/mt/mt-search.cgi?blog_id=1&tag=extreme%20sports&limit=20
p1397
aVhttp://geekologie.com/mt/mt-search.cgi?blog_id=1&tag=i%20know%20what%20i%27m%20doing%20this%20weekend&limit=20
p1398
aVhttp://geekologie.com/mt/mt-search.cgi?blog_id=1&tag=i%20would%20hurt%20myself%20so%20bad&limit=20
p1399
aVhttp://geekologie.com/mt/mt-search.cgi?blog_id=1&tag=indiana%20jones&limit=20
p1400
aVhttp://geekologie.com/mt/mt-search.cgi?blog_id=1&tag=weapons&limit=20
p1401
aVhttp://stream1.gifsoup.com/view4/3346736/jenga-o.gif
p1402
aVhttp://simpledisplaycase.blogspot.com/
p1403
aVhttps://www.facebook.com/photo.php?fbid=416611235078439&set=a.290614844344746.68923.100001886995943&type=3
p1404
aVhttps://www.facebook.com/WithoutShade/about
p1405
aVhttps://www.facebook.com/caterpillar/
p1406
aVhttps://www.facebook.com/pages/Fire-Dancer/515777011834524
p1407
aVhttps://www.facebook.com/pages/Fire-Performer/168953209963108
p1408
aVhttps://www.facebook.com/pages/Dance-InstructorChoreographer/171919546327242
p1409
aVhttps://www.facebook.com/pages/Freelance-Photographer/111001815590823
p1410
aVhttps://www.facebook.com/Freelance-model-217494644964531/
p1411
aVhttps://www.facebook.com/rockislandarsenal/
p1412
aVhttps://www.facebook.com/universityofiowa/
p1413
aVhttps://www.facebook.com/Step-Into-Swing-21201922368/
p1414
aVhttps://www.facebook.com/auburnu/
p1415
aVhttps://www.facebook.com/pages/Architectural-drafting/112219102129353
p1416
aVhttps://www.facebook.com/pages/Artificial-Intelligence/108369822520186
p1417
aVhttps://www.facebook.com/pages/Bioanthropology/106045756101491
p1418
aVhttps://www.facebook.com/pages/Cello/112548678757278
p1419
aVhttps://www.facebook.com/pages/Chemical-Engineering/104011699634001
p1420
aVhttps://www.facebook.com/pages/Computational-Fluid-Dynamics/108182039203915
p1421
aVhttps://www.facebook.com/pages/Control-system/108766069148403
p1422
aVhttps://www.facebook.com/pages/Electromechanics/103972822971398
p1423
aVhttps://www.facebook.com/pages/Engineering/109532545739630
p1424
aVhttps://www.facebook.com/pages/Engineering-Mathematics/108067842560255
p1425
aVhttps://www.facebook.com/pages/Finite-element-method/107940502560560
p1426
aVhttps://www.facebook.com/pages/Fire/104028546300168
p1427
aVhttps://www.facebook.com/pages/Mathematical-analysis/108126869211539
p1428
aVhttps://www.facebook.com/pages/Mechanical-Engineering/108271415859752
p1429
aVhttps://www.facebook.com/pages/Mechatronics/104115076291168
p1430
aVhttps://www.facebook.com/pages/Multiresolution-analysis/723223274362641
p1431
aVhttps://www.facebook.com/pages/Numerical-analysis/112406735442430
p1432
aVhttps://www.facebook.com/pages/Numerical-control/104088302959970
p1433
aVhttps://www.facebook.com/pages/Particle-Physics/104312469604336
p1434
aVhttps://www.facebook.com/pages/Structural-Engineering/112218918789554
p1435
aVhttps://www.facebook.com/pages/Swing-Dancing/110543665641851
p1436
aVhttps://www.facebook.com/pages/Tango-music/112100132149119
p1437
aVhttps://www.facebook.com/pages/Violin/109624495724031
p1438
aVhttps://www.facebook.com/pages/Kirkwood-Community-College/106059786091969
p1439
aVhttps://www.facebook.com/pages/Linn-Mar-High-School/109678442392357
p1440
aVhttps://www.facebook.com/pages/Auburn-High-School/107818519239542
p1441
aVhttps://www.facebook.com/pages/Peoria-Illinois/113848465291957
p1442
aVhttps://www.facebook.com/pages/Cedar-Rapids-Iowa/107966839224016
p1443
aVhttps://www.facebook.com/pages/Davenport-Iowa/112457722099049
p1444
aVhttps://www.facebook.com/Auburn-University-159576647406082/
p1445
aVhttps://www.facebook.com/pages/Nashville-Tennessee/106220079409935
p1446
aVhttps://www.facebook.com/owlcity/
p1447
aVhttps://www.facebook.com/pages/The-Hunger-Games-trilogy/109294189097649
p1448
aVhttps://www.facebook.com/darkknight/
p1449
aVhttps://www.facebook.com/FamilyGuy/
p1450
aVhttps://www.facebook.com/pages/Gloomtail/110671305620831
p1451
aVhttps://www.facebook.com/OfficialMeganRetzlaff/
p1452
aVhttps://www.facebook.com/pages/Snowboarding/107496599279538
p1453
aVhttps://www.facebook.com/pages/Baby-The-Stars-Shine-Bright/112417082103557
p1454
aVhttps://www.facebook.com/pages/Guitar/113099055370169
p1455
aVhttps://www.facebook.com/pages/People-who-are-doing-things-that-bring-them-joy-and-who-love-life/197383926942525
p1456
aVhttps://www.facebook.com/omahajitterbugs/
p1457
aVhttps://www.facebook.com/lindyhopboston/
p1458
aVhttps://www.facebook.com/lucyphair/
p1459
aVhttps://www.facebook.com/atomicirvine/
p1460
aVhttps://www.facebook.com/chase/
p1461
aVhttps://www.facebook.com/SugarHutOfficial/
p1462
aVhttps://www.facebook.com/ST0PH0M0PH0BIA/
p1463
aVhttps://www.facebook.com/NoreastWhips/
p1464
aVhttps://www.facebook.com/Nerdist/
p1465
aVhttps://www.facebook.com/peopleareawesome/
p1466
aVhttps://www.facebook.com/musescore/
p1467
aVhttps://www.facebook.com/izmirlindyhoppers/
p1468
aVhttps://www.facebook.com/DanceCraftZoeJakes/
p1469
aVhttps://www.facebook.com/KumaFilms/
p1470
aVhttps://www.facebook.com/aaawwwesome/
p1471
aVhttps://www.facebook.com/welt/
p1472
aVhttps://www.facebook.com/Dose/
p1473
aVhttps://www.facebook.com/Nocturnal-Arts-152555948099668/
p1474
aVhttps://www.facebook.com/UltraPoi/
p1475
aVhttps://www.facebook.com/swanberryfarm/
p1476
aVhttps://www.facebook.com/vaudevillelouisville/
p1477
aVhttps://www.facebook.com/Holly-Harvest-206085216400320/
p1478
aVhttps://www.facebook.com/Just-Wow-335572876634214/
p1479
aVhttps://www.facebook.com/timetracking/
p1480
aVhttps://www.facebook.com/alivepost/
p1481
aVhttps://www.facebook.com/ModekDesigns/
p1482
aVhttps://www.facebook.com/EnjoyPeoria/
p1483
aVhttps://www.facebook.com/NyczPhotography/
p1484
aVhttps://www.facebook.com/specialbooksbyspecialkids/
p1485
aVhttps://www.facebook.com/airicamichellemodel/
p1486
aVhttps://www.facebook.com/BloodSweatAndCheers/
p1487
aVhttps://www.facebook.com/superdeluxevideo/
p1488
aVhttps://www.facebook.com/HighHeelMom/
p1489
aVhttps://www.facebook.com/proctorcenter/
p1490
aVhttps://www.facebook.com/KKreationsCosplay/
p1491
aVhttps://www.facebook.com/infinityspiralphotography/
p1492
aVhttps://www.facebook.com/grammarly/
p1493
aVhttps://www.facebook.com/LanternSmith/
p1494
aVhttps://www.facebook.com/meawwcom/
p1495
aVhttps://www.facebook.com/MClassPhotography/
p1496
aVhttps://www.facebook.com/Oddblondeduck/
p1497
aVhttps://www.facebook.com/MichelleBellHoop/
p1498
aVhttps://www.facebook.com/PurdueNightTrain/
p1499
aVhttps://www.facebook.com/upperlimitsblm/
p1500
aVhttps://www.facebook.com/psi.hoops/
p1501
aVhttps://www.facebook.com/elemento.fuego.7/
p1502
aVhttps://www.facebook.com/Va-Va-Vixens-714123882058456/
p1503
aVhttps://www.facebook.com/fahrenheit.flowarts.9/
p1504
aVhttps://www.facebook.com/DesignsbySnowRose/
p1505
aVhttps://www.facebook.com/TheOfficialVV/
p1506
aVhttps://www.facebook.com/WHIRLWINDPRODUCTIONS/
p1507
aVhttps://www.facebook.com/JuggleQC/
p1508
aVhttps://www.facebook.com/liepsnojantisserksnas/
p1509
aVhttps://www.facebook.com/WilkAuctionService/
p1510
aVhttps://www.facebook.com/ramenpirate/
p1511
aVhttps://www.facebook.com/gspot.hairdesign/
p1512
aVhttps://www.facebook.com/swingcityboston/
p1513
aVhttps://www.facebook.com/BostonSwingCentral/
p1514
aVhttps://www.facebook.com/drexfactorpoi/
p1515
aVhttps://www.facebook.com/climbqca/
p1516
aVhttps://www.facebook.com/Quad-City-Rock-Climbers-638878586186226/
p1517
aVhttps://www.facebook.com/chicagobluetopia/
p1518
aVhttps://www.facebook.com/AwarenessofFairness/
p1519
aVhttps://www.facebook.com/FlamewaterCircus/
p1520
aVhttps://www.facebook.com/IgnitePeoria/
p1521
aVhttps://www.facebook.com/Firespirit-Fireshows-752674418188123/
p1522
aVhttps://www.facebook.com/lunastorme/
p1523
aVhttps://www.facebook.com/woolys.desmoines/
p1524
aVhttps://www.facebook.com/GWMRR/
p1525
aVhttps://www.facebook.com/wasteland.omaha/
p1526
aVhttps://www.facebook.com/DeKalbDanceDimensions/
p1527
aVhttps://www.facebook.com/qccolab/
p1528
aVhttps://www.facebook.com/cirquedelight/
p1529
aVhttps://www.facebook.com/lacorevalmon.circus/
p1530
aVhttps://www.facebook.com/VIAstrengths/
p1531
aVhttps://www.facebook.com/worldofdance/
p1532
aVhttps://www.facebook.com/DarkMonkNews/
p1533
aVhttps://www.facebook.com/trashcanannie/
p1534
aVhttps://www.facebook.com/pages/Mihaly-Csikszentmihalyi/112530635426449
p1535
aVhttps://www.facebook.com/AnnaAkana/
p1536
aVhttps://www.facebook.com/thepetcollective/
p1537
aVhttps://www.facebook.com/iamlilbub/
p1538
aVhttps://www.facebook.com/welbournejazzfarm/
p1539
aVhttps://www.facebook.com/BathroomSelfiesForBryan/
p1540
aVhttps://www.facebook.com/beautymarkbysonia/
p1541
aVhttps://www.facebook.com/thebeermaidenblog/
p1542
aVhttps://www.facebook.com/dharmayogawheel/
p1543
aVhttps://www.facebook.com/SpinFXEntertainment/
p1544
aVhttps://www.facebook.com/battywampus/
p1545
aVhttps://www.facebook.com/Ragnarok-Fire-Supplies-856434127712781/
p1546
aVhttps://www.facebook.com/moonberrystudios/
p1547
aVhttps://www.facebook.com/Duchess-Dakini-185769314957751/
p1548
aVhttps://www.facebook.com/emmasteele88/
p1549
aVhttps://www.facebook.com/hoopityourself/
p1550
aVhttps://www.facebook.com/whipsandwhatknots/
p1551
aVhttps://www.facebook.com/dan.mn.940/
p1552
aVhttps://www.facebook.com/bluesshout/
p1553
aVhttps://www.facebook.com/MixedMotionArt/
p1554
aVhttps://www.facebook.com/dollynpupy.rockandroll/
p1555
aVhttps://www.facebook.com/Quad-Cities-Fall-Pride-1535041920066336/
p1556
aVhttps://www.facebook.com/NaturalTangoArt/
p1557
aVhttps://www.facebook.com/The-Thirsty-Turtle-Tavern-435971163124696/
p1558
aVhttps://www.facebook.com/SpiritFlowTech/
p1559
aVhttps://www.facebook.com/gizelofficialfanpage/
p1560
aVhttps://www.facebook.com/MsLianaRain/
p1561
aVhttps://www.facebook.com/Sunflower-Sutra-Photography-131334423724182/
p1562
aVhttps://www.facebook.com/Pose-Plus-Photography-713803932040743/
p1563
aVhttps://www.facebook.com/HawkeyeSwingFestival/
p1564
aVhttps://www.facebook.com/patrickstewart/
p1565
aVhttps://www.facebook.com/iowacitypride/
p1566
aVhttps://www.facebook.com/JosiPaula02/
p1567
aVhttps://www.facebook.com/World-of-Passion-133910336784118/
p1568
aVhttps://www.facebook.com/BlondinbellaOfficial/
p1569
aVhttps://www.facebook.com/thefitnessbabes/
p1570
aVhttps://www.facebook.com/MyFitnessHealthLifestyle/
p1571
aVhttps://www.facebook.com/JessicaClementFanPage/
p1572
aVhttps://www.facebook.com/xoMaiKou/
p1573
aVhttps://www.facebook.com/vickyleesworld/
p1574
aVhttps://www.facebook.com/HemiGirl/
p1575
aVhttps://www.facebook.com/TheBritBliss/
p1576
aVhttps://www.facebook.com/TheBarbieBlank/
p1577
aVhttps://www.facebook.com/emilyskyemodel/
p1578
aVhttps://www.facebook.com/WhereDoTheseGirlsLive/
p1579
aVhttps://www.facebook.com/CosplayWithKindness/
p1580
aVhttps://www.facebook.com/weird.review/
p1581
aVhttps://www.facebook.com/NickAkerGraphics/
p1582
aVhttps://www.facebook.com/The-Hudsucker-Posse-280387608800646/
p1583
aVhttps://www.facebook.com/RainEntMusic/
p1584
aVhttps://www.facebook.com/BellyDanceVideoz/
p1585
aVhttps://www.facebook.com/BodyKandiStore/
p1586
aVhttps://www.facebook.com/TheReklessKrew/
p1587
aVhttps://www.facebook.com/quadcities/
p1588
aVhttps://www.facebook.com/rivermusicexperience/
p1589
aVhttps://www.facebook.com/IHeartCatscom/
p1590
aVhttps://www.facebook.com/ILoveElectricDaisyCarnival/
p1591
aVhttps://www.facebook.com/ChineseModel/
p1592
aVhttps://www.facebook.com/yoyousastore/
p1593
aVhttps://www.facebook.com/Fire-In-The-Sky-QC-284569995056211/
p1594
aVhttps://www.facebook.com/QCFlowArts/
p1595
aVhttps://www.facebook.com/southernlights.hoopdancers/
p1596
aVhttps://www.facebook.com/StudioReserved/
p1597
aVhttps://www.facebook.com/ravepulse/
p1598
aVhttps://www.facebook.com/CRMakerSpace/
p1599
aVhttps://www.facebook.com/ramencon/
p1600
aVhttps://www.facebook.com/aprilnamedclothing/
p1601
aVhttps://www.facebook.com/YoTricks/
p1602
aVhttps://www.facebook.com/yoyofactory/
p1603
aVhttps://www.facebook.com/wildcatsanctuary/
p1604
aVhttps://www.facebook.com/british.fest/
p1605
aVhttps://www.facebook.com/goldenpawsociety/
p1606
aVhttps://www.facebook.com/ModelJordanCarver/
p1607
aVhttps://www.facebook.com/gabrielfordfire/
p1608
aVhttps://www.facebook.com/givepropsdoc/
p1609
aVhttps://www.facebook.com/Barbara-Kay-Photography-514061398691768/
p1610
aVhttps://www.facebook.com/Queen-Of-Blending-211452460149/
p1611
aVhttps://www.facebook.com/PepsiUS/
p1612
aVhttps://es-la.facebook.com/jennifer.paredesgomez.3
p1613
aVhttps://es-es.facebook.com/people/Jennifer-Cogollo-Sierra/60000017102243
p1614
aVhttps://zh-tw.facebook.com/people/Patrick-Choi/60000011600843
p1615
aVhttps://es-la.facebook.com/jacbjfcm
p1616
aVhttps://pl-pl.facebook.com/WithoutShade
p1617
aVhttps://es-la.facebook.com/WithoutShade
p1618
aVhttps://fr-fr.facebook.com/WithoutShade
p1619
aVhttps://it-it.facebook.com/WithoutShade
p1620
aVhttps://lt-lt.facebook.com/WithoutShade
p1621
aVhttps://ro-ro.facebook.com/WithoutShade
p1622
aVhttps://zh-cn.facebook.com/WithoutShade
p1623
aVhttps://pt-br.facebook.com/WithoutShade
p1624
aVhttps://de-de.facebook.com/WithoutShade
p1625
aVhttps://ar-ar.facebook.com/WithoutShade
p1626
aVhttp://ad2.netshelter.net/jump/ns.geekologie/general;ppos=atf;kw=;tile=1;sz=728x90,970x90,970x250;ord=123456789?
p1627
aVhttp://geekologie.com/2016/04/watch-me-howl-at-the-moon-wolf-snout-und.php
p1628
aVhttp://geekologie.com/2016/04/impressive-boba-fett-helmet-hair-colorin.php
p1629
aVhttp://geekologie.com/mt/mt-search.cgi?blog_id=1&tag=all%20aboard%21&limit=20
p1630
aVhttp://geekologie.com/mt/mt-search.cgi?blog_id=1&tag=choo%20choo%21&limit=20
p1631
aVhttp://geekologie.com/mt/mt-search.cgi?blog_id=1&tag=first%20person%20pov&limit=20
p1632
aVhttp://geekologie.com/mt/mt-search.cgi?blog_id=1&tag=great%20now%20i%20want%20miles%20of%20lego%20track%20around%20my%20house&limit=20
p1633
aVhttp://geekologie.com/mt/mt-search.cgi?blog_id=1&tag=i%27m%20a%20tiny%20little%20person%21&limit=20
p1634
aVhttp://geekologie.com/mt/mt-search.cgi?blog_id=1&tag=lego&limit=20
p1635
aVhttp://geekologie.com/mt/mt-search.cgi?blog_id=1&tag=modular&limit=20
p1636
aVhttp://geekologie.com/mt/mt-search.cgi?blog_id=1&tag=plastic&limit=20
p1637
aVhttp://geekologie.com/mt/mt-search.cgi?blog_id=1&tag=point%20of%20view&limit=20
p1638
aVhttp://geekologie.com/mt/mt-search.cgi?blog_id=1&tag=POV&limit=20
p1639
aVhttp://geekologie.com/mt/mt-search.cgi?blog_id=1&tag=so%20that%27s%20what%20that%20looks%20like&limit=20
p1640
aVhttp://sploid.gizmodo.com/seeing-the-first-person-view-of-a-lego-toy-train-riding-1773456926
p1641
aVhttps://s-media-cache-ak0.pinimg.com/236x/22/75/11/22751183f06db1f438e259534dc3cdb7.jpg
p1642
aVhttp://i0.kym-cdn.com/photos/images/newsfeed/000/398/352/1f5.png
p1643
aVhttp://i2.kym-cdn.com/photos/images/masonry/000/595/392/e59.jpeg
p1644
aVhttp://treasure.diylol.com/uploads/post/image/340756/resized_posh-twat-meme-generator-jolly-spiffing-what-what-ea6131.jpg
p1645
aVhttp://geekologie.com/2015/02/beautiful-stop-motion-of-artist-painting.php
p1646
aVhttp://geekologie.com/2014/10/point-of-view-drone-racing-through-the-w.php
p1647
aVhttp://geekologie.com/2014/03/no-jethro-tull-twenty-iconic-bands-as-le.php
p1648
aVhttp://geekologie.com/2016/04/what-an-all-star-man-writes-own-beautifu.php
p1649
aVhttp://geekologie.com/2016/04/2-year-old-turkey-whisperer-talking-to-g.php
p1650
aVhttp://geekologie.com/mt/mt-search.cgi?blog_id=1&tag=experts&limit=20
p1651
aVhttp://geekologie.com/mt/mt-search.cgi?blog_id=1&tag=maybe%20this%20will%20be%20my%20new%20hobby&limit=20
p1652
aVhttp://geekologie.com/mt/mt-search.cgi?blog_id=1&tag=professionals&limit=20
p1653
aVhttp://geekologie.com/mt/mt-search.cgi?blog_id=1&tag=seriously%20i%20might%20get%20one%20of%20those%20tops%20and%20start%20practicing%20this%20could%20be%20a%20great%20stress%20reliever%20for%20me%20%28or%20frustrating%20and%20make%20me%20even%20angrier%20it%20could%20go%20either%20way%20but%20probably%20this%20way%20now%20that%20i%20think%20about%20it%29&limit=20
p1654
aVhttp://geekologie.com/mt/mt-search.cgi?blog_id=1&tag=skills&limit=20
p1655
aVhttp://geekologie.com/mt/mt-search.cgi?blog_id=1&tag=taiwan&limit=20
p1656
aVhttp://geekologie.com/mt/mt-search.cgi?blog_id=1&tag=throwing%20things&limit=20
p1657
aVhttp://geekologie.com/mt/mt-search.cgi?blog_id=1&tag=tricks&limit=20
p1658
aVhttp://theawesomer.com/spintop-snipers/362745/
p1659
aVhttps://www.facebook.com/groups/122251931268532/
p1660
aVhttp://geekologie.com/2016/03/oh-wow-richie-jacksons-insane-skateboard.php
p1661
aVhttp://geekologie.com/2016/01/how-you-do-that-crazy-ass-air-dancing-pe.php
p1662
aVhttp://geekologie.com/2016/03/youtubers-get-the-opportunity-to-play-hi.php
p1663
aVhttp://geekologie.com/mt/mt-search.cgi?blog_id=1&tag=awwww&limit=20
p1664
aVhttp://geekologie.com/mt/mt-search.cgi?blog_id=1&tag=beautiful&limit=20
p1665
aVhttp://geekologie.com/mt/mt-search.cgi?blog_id=1&tag=chewbacca&limit=20
p1666
aVhttp://geekologie.com/mt/mt-search.cgi?blog_id=1&tag=having%20the%20time%20of%20your%20life&limit=20
p1667
aVhttp://geekologie.com/mt/mt-search.cgi?blog_id=1&tag=i%20need%20more%20candaces%20in%20my%20life&limit=20
p1668
aVhttp://geekologie.com/mt/mt-search.cgi?blog_id=1&tag=like%20a%20kid%20in%20a%20candy%20store&limit=20
p1669
aVhttp://geekologie.com/mt/mt-search.cgi?blog_id=1&tag=living%20the%20dream&limit=20
p1670
aVhttp://geekologie.com/mt/mt-search.cgi?blog_id=1&tag=mask&limit=20
p1671
aVhttp://geekologie.com/mt/mt-search.cgi?blog_id=1&tag=star%20wars&limit=20
p1672
aVhttp://geekologie.com/mt/mt-search.cgi?blog_id=1&tag=toys&limit=20
p1673
aVhttp://geekologie.com/mt/mt-search.cgi?blog_id=1&tag=what%20a%20delightful%20woman&limit=20
p1674
aVhttp://geekologie.com/mt/mt-search.cgi?blog_id=1&tag=your%20feel%20good%20video%20of%20the%20day&limit=20
p1675
aVhttps://pl-pl.facebook.com/candaceSpayne
p1676
aVhttps://es-la.facebook.com/candaceSpayne
p1677
aVhttps://fr-fr.facebook.com/candaceSpayne
p1678
aVhttps://it-it.facebook.com/candaceSpayne
p1679
aVhttps://lt-lt.facebook.com/candaceSpayne
p1680
aVhttps://ro-ro.facebook.com/candaceSpayne
p1681
aVhttps://zh-cn.facebook.com/candaceSpayne
p1682
aVhttps://pt-br.facebook.com/candaceSpayne
p1683
aVhttps://de-de.facebook.com/candaceSpayne
p1684
aVhttps://ar-ar.facebook.com/candaceSpayne
p1685
aVhttp://geekologie.com/2016/02/super-mario-kart-w-101-different-video-g.php
p1686
aVhttp://geekologie.com/2016/02/video-of-man-eating-like-a-wild-animal-a.php
p1687
aVhttp://geekologie.com/mt/mt-search.cgi?blog_id=1&tag=colors&limit=20
p1688
aVhttp://geekologie.com/mt/mt-search.cgi?blog_id=1&tag=custom&limit=20
p1689
aVhttp://geekologie.com/mt/mt-search.cgi?blog_id=1&tag=fathering&limit=20
p1690
aVhttp://geekologie.com/mt/mt-search.cgi?blog_id=1&tag=i%20wish%20i%20had%20a%20set%20of%20stormtrooper%20armor%20i%20don%27t%20think%20i%27d%20ever%20leave%20home%20not%20wearing%20it%20and%20it%20would%20become%20my%20security%20blanket%20instead%20of%20the%20actual%20blankie%20i%20carry%20around%20now&limit=20
p1691
aVhttp://geekologie.com/mt/mt-search.cgi?blog_id=1&tag=modding%20things&limit=20
p1692
aVhttp://geekologie.com/mt/mt-search.cgi?blog_id=1&tag=pink&limit=20
p1693
aVhttp://geekologie.com/mt/mt-search.cgi?blog_id=1&tag=stormtrooper&limit=20
p1694
aVhttp://io9.gizmodo.com/this-tiny-first-order-stormtrooper-just-stole-our-heart-1758939795
p1695
aVhttp://geekologie.com/2012/09/bounty-hunting-in-style-boba-fett-themed.php
p1696
aVhttp://geekologie.com/2012/07/how-about-a-faceful-of-butt-darth-vader.php
p1697
aVhttp://geekologie.com/2008/12/custom-made-tusken-raider-munn-1.php
p1698
aVhttp://geekologie.com/2016/05/oh-wow-snake-being-eaten-by-toad-tries-t.php
p1699
aVhttp://geekologie.com/mt/mt-search.cgi?blog_id=1&tag=attachments&limit=20
p1700
aVhttp://geekologie.com/mt/mt-search.cgi?blog_id=1&tag=camping&limit=20
p1701
aVhttp://geekologie.com/mt/mt-search.cgi?blog_id=1&tag=football&limit=20
p1702
aVhttp://geekologie.com/mt/mt-search.cgi?blog_id=1&tag=i%20want%20that&limit=20
p1703
aVhttp://geekologie.com/mt/mt-search.cgi?blog_id=1&tag=old%20people&limit=20
p1704
aVhttp://geekologie.com/mt/mt-search.cgi?blog_id=1&tag=somebody%20toss%20me%20a%20beer&limit=20
p1705
aVhttp://geekologie.com/mt/mt-search.cgi?blog_id=1&tag=sports&limit=20
p1706
aVhttp://geekologie.com/mt/mt-search.cgi?blog_id=1&tag=tailgating&limit=20
p1707
aVhttp://geekologie.com/mt/mt-search.cgi?blog_id=1&tag=tailgating%20tailgating%20cars%20so%20close%20it%20looks%20like%20they%27re%20mating&limit=20
p1708
aVhttp://geekologie.com/mt/mt-search.cgi?blog_id=1&tag=trucks&limit=20
p1709
aVhttp://geekologie.com/2012/09/finally-a-decent-hitch-mounted-stripper.php
p1710
aVhttp://www.incrediblethings.com/products/tailgater-hammock/
p1711
aVhttp://www.hammacher.com/Product/Default.aspx?sku=12452
p1712
aVhttp://geekologie.com/2016/05/hammocraft-a-floating-paddleboard-hammoc.php
p1713
aVhttp://geekologie.com/2015/09/the-tarzan-boat-buy-your-own-floating-wa.php
p1714
aVhttp://geekologie.com/2009/03/oooh-yellowy-pittsburg-steeler.php
p1715
aVhttp://geekologie.com/mt/mt-search.cgi?blog_id=1&tag=against%20the%20wind&limit=20
p1716
aVhttp://geekologie.com/mt/mt-search.cgi?blog_id=1&tag=and%20the%20wind%20cries%20mary&limit=20
p1717
aVhttp://geekologie.com/mt/mt-search.cgi?blog_id=1&tag=idiot%20wind&limit=20
p1718
aVhttp://geekologie.com/mt/mt-search.cgi?blog_id=1&tag=pissing%20in%20the%20wind&limit=20
p1719
aVhttp://geekologie.com/mt/mt-search.cgi?blog_id=1&tag=the%20answer%20my%20friend%20is%20blowing%20in%20the%20wind&limit=20
p1720
aVhttp://geekologie.com/mt/mt-search.cgi?blog_id=1&tag=the%20wind%20beneath%20my%20wings&limit=20
p1721
aVhttp://geekologie.com/mt/mt-search.cgi?blog_id=1&tag=video&limit=20
p1722
aVhttp://geekologie.com/mt/mt-search.cgi?blog_id=1&tag=weather&limit=20
p1723
aVhttp://geekologie.com/mt/mt-search.cgi?blog_id=1&tag=whichever%20way%20the%20wind%20blows&limit=20
p1724
aVhttp://geekologie.com/mt/mt-search.cgi?blog_id=1&tag=wind&limit=20
p1725
aVhttp://geekologie.com/mt/mt-search.cgi?blog_id=1&tag=you%20lived%20your%20life%20like%20a%20candle%20in%20the%20wind&limit=20
p1726
aVhttp://bit.ly/1Tti5Db
p1727
aVhttp://24.media.tumblr.com/tumblr_lzvddeAKtL1qmjnzro2_500.gif
p1728
aVhttps://www.youtube.com/watch?v=oBkSy3dnIY8
p1729
a.