(lp0
Vhttps://status.github.com/
p1
aVhttps://developer.github.com
p2
aVhttps://training.github.com
p3
aVhttps://shop.github.com
p4
aVhttps://github.com/blog
p5
aVhttps://github.com/about
p6
aVhttps://github.com
p7
aVhttps://github.com/site/terms
p8
aVhttps://github.com/site/privacy
p9
aVhttps://github.com/security
p10
aVhttps://github.com/contact
p11
aVhttp://www.gamefromscratch.com/
p12
aVhttp://www.gamefromscratch.com/archive.aspx
p13
aVhttps://www.youtube.com/subscription_center?add_user=GameFromScratch
p14
aVhttps://www.patreon.com/gamefromscratch
p15
aVhttps://twitter.com/gamefromscratch
p16
aVhttp://www.gamefromscratch.com/page/LibGDX-Video-Tutorial-Series.aspx
p17
aVhttp://www.gamefromscratch.com/post/2013/09/19/LibGDX-Tutorial-1-Creating-an-initial-project.aspx
p18
aVhttp://www.gamefromscratch.com/post/2013/09/26/LibGDX-Tutorial-2-Hello-World.aspx
p19
aVhttp://www.gamefromscratch.com/post/2013/10/02/LibGDX-Tutorial-3-Basic-graphics.aspx
p20
aVhttp://www.gamefromscratch.com/post/2013/12/09/LibGDX-Tutorial-3B-Simple-Animation.aspx
p21
aVhttp://www.gamefromscratch.com/post/2013/10/15/LibGDX-Tutorial-4-Handling-the-mouse-and-keyboard.aspx
p22
aVhttp://www.gamefromscratch.com/post/2013/10/24/LibGDX-Tutorial-5-Handling-Input-Touch-and-gestures.aspx
p23
aVhttp://www.gamefromscratch.com/post/2013/10/30/LibGDX-Tutorial-6-Motion-controls.aspx
p24
aVhttp://www.gamefromscratch.com/post/2013/11/06/LibGDX-Tutorial-7-Camera-basics.aspx
p25
aVhttp://www.gamefromscratch.com/post/2013/11/19/LibGDX-Tutorial-8-Audio.aspx
p26
aVhttp://www.gamefromscratch.com/post/2013/11/27/LibGDX-Tutorial-9-Scene2D-Part-1.aspx
p27
aVhttp://www.gamefromscratch.com/post/2013/12/09/LibGDX-Tutorial-9-Scene2D-Part-2-Actions.aspx
p28
aVhttp://www.gamefromscratch.com/post/2013/12/11/LibGDX-Tutorial-3C-Scene-management.aspx
p29
aVhttp://www.gamefromscratch.com/post/2013/12/18/LibGDX-Tutorial-9-Scene2D-Part-3-UI-Skins.aspx
p30
aVhttp://www.gamefromscratch.com/post/2014/03/11/LibGDX-Tutorial-10-Basic-networking.aspx
p31
aVhttp://www.gamefromscratch.com/post/2014/04/15/A-quick-look-at-Tiled-An-open-source-2D-level-editor.aspx
p32
aVhttp://www.gamefromscratch.com/post/2014/04/16/LibGDX-Tutorial-11-Tiled-Maps-Part-1-Simple-Orthogonal-Maps.aspx
p33
aVhttp://www.gamefromscratch.com/post/2014/05/01/LibGDX-Tutorial-11-Tiled-Maps-Part-2-Adding-a-character-sprite.aspx
p34
aVhttp://www.gamefromscratch.com/post/2014/07/08/LibGDX-Tutorial-Part-12-Using-GLSL-Shaders-and-creating-a-Mesh.aspx
p35
aVhttp://www.gamefromscratch.com/post/2014/08/27/LibGDX-Tutorial-13-Physics-with-Box2D-Part-1-A-Basic-Physics-Simulations.aspx
p36
aVhttp://www.gamefromscratch.com/post/2014/09/10/LibGDX-Tutorial-13-Physics-with-Box2D-Part-2-Force-Impulses-and-Torque.aspx
p37
aVhttp://www.gamefromscratch.com/post/2014/09/25/LibGDX-LibGDX-Tutorial-13-Physics-with-Box2D-Part-3-Collisions.aspx
p38
aVhttp://www.gamefromscratch.com/post/2014/09/25/LibGDX-LibGDX-Tutorial-13-Physics-with-Box2D-Part-4-Controlling-collisions-using-filters.aspx
p39
aVhttp://www.gamefromscratch.com/post/2014/09/22/LibGDX-Tutorial-Part-14-Gamepad-support.aspx
p40
aVhttp://www.gamefromscratch.com/post/2014/11/03/LibGDX-Tutorial-Part-15-Particles-Part-One-2D-Particles.aspx
p41
aVhttps://www.youtube.com/watch?v=HXYqg3G5kCo
p42
aVhttp://www.gamefromscratch.com/post/2014/12/08/LibGDX-Tutorial-Part-16-Cameras.aspx
p43
aVhttp://www.gamefromscratch.com/post/2014/12/09/LibGDX-Tutorial-Part-17-Viewports.aspx
p44
aVhttp://www.gamefromscratch.com/post/2013/10/07/Speeding-up-GWT-compilation-speeds-in-a-LibGDX-project.aspx
p45
aVhttp://www.gamefromscratch.com/post/2013/12/01/Using-LibGDX-with-IntelliJ-with-Gradle.aspx
p46
aVhttp://www.gamefromscratch.com/post/2014/03/26/Want-to-use-LibGDX-but-hate-Eclipse-Good-news-with-Gradle-IntelliJ-just-became-easier.aspx
p47
aVhttp://www.gamefromscratch.com/post/2014/01/10/LibGDX-minimal-3D-app.aspx
p48
aVhttp://www.gamefromscratch.com/post/2014/01/19/3D-models-and-animation-from-Blender-to-LibGDX.aspx
p49
aVhttp://www.gamefromscratch.com/post/2014/01/14/Building-LibGDXs-fbx-conv-on-Mac-OS.aspx
p50
aVhttp://www.gamefromscratch.com/post/2014/04/03/Troubleshooting-IntelliJLibGDXRoboVMGradle-issues-on-Mac-OS.aspx
p51
aVhttp://www.gamefromscratch.com/post/2014/02/14/No-bones-about-it-Bones-in-LibGDX-and-Blender.aspx
p52
aVhttp://www.gamefromscratch.com/post/2014/02/05/So-this-moving-bones-in-LibGDX-models-is-easier-than-I-thought.aspx
p53
aVhttp://www.gamefromscratch.com/post/2014/01/21/Rendering-a-3D-model-to-texture-in-LibGDX.aspx
p54
aVhttp://www.gamefromscratch.com/post/2014/10/28/Re-using-actions-in-LibGDX.aspx
p55
aVhttp://disqus.com/?ref_noscript=gamefromscratch
p56
aVhttp://disqus.com
p57
aVhttp://statcounter.com/free-hit-counter/
p58
aVhttps://www.amazon.co.uk/ap/signin?_encoding=UTF8&openid.assoc_handle=gbflex&openid.claimed_id=http%3A%2F%2Fspecs.openid.net%2Fauth%2F2.0%2Fidentifier_select&openid.identity=http%3A%2F%2Fspecs.openid.net%2Fauth%2F2.0%2Fidentifier_select&openid.mode=checkid_setup&openid.ns=http%3A%2F%2Fspecs.openid.net%2Fauth%2F2.0&openid.ns.pape=http%3A%2F%2Fspecs.openid.net%2Fextensions%2Fpape%2F1.0&openid.pape.max_auth_age=0&openid.return_to=https%3A%2F%2Fwww.amazon.co.uk%2Fgp%2Fyour-account%2Forder-history%3Fie%3DUTF8%26ref_%3Dya_orders_ap&pageId=webcs-yourorder&showRmrMe=1
p59
aVhttps://www.amazon.co.uk/ap/signin?_encoding=UTF8&openid.assoc_handle=gbamazon&openid.claimed_id=http%3A%2F%2Fspecs.openid.net%2Fauth%2F2.0%2Fidentifier_select&openid.identity=http%3A%2F%2Fspecs.openid.net%2Fauth%2F2.0%2Fidentifier_select&openid.mode=checkid_setup&openid.ns=http%3A%2F%2Fspecs.openid.net%2Fauth%2F2.0&openid.return_to=https%3A%2F%2Fwww.amazon.co.uk%2Fgp%2Fcss%2Forder-history%3Fie%3DUTF8%26orderFilter%3Darchived%26ref_%3Dya_view_archived_orders_link
p60
aVhttps://www.amazon.co.uk/ap/cnep?_encoding=UTF8&openid.assoc_handle=gbflex&openid.claimed_id=http%3A%2F%2Fspecs.openid.net%2Fauth%2F2.0%2Fidentifier_select&openid.identity=http%3A%2F%2Fspecs.openid.net%2Fauth%2F2.0%2Fidentifier_select&openid.mode=checkid_setup&openid.ns=http%3A%2F%2Fspecs.openid.net%2Fauth%2F2.0&openid.ns.pape=http%3A%2F%2Fspecs.openid.net%2Fextensions%2Fpape%2F1.0&openid.pape.max_auth_age=0&openid.return_to=https%3A%2F%2Fwww.amazon.co.uk%2Fgp%2Fcss%2Fhomepage.html%3Fie%3DUTF8%26ref_%3Dya_cnep
p61
aVhttps://www.amazon.co.uk/ap/forgotpassword?_encoding=UTF8&openid.assoc_handle=gbflex&openid.claimed_id=http%3A%2F%2Fspecs.openid.net%2Fauth%2F2.0%2Fidentifier_select&openid.identity=http%3A%2F%2Fspecs.openid.net%2Fauth%2F2.0%2Fidentifier_select&openid.mode=checkid_setup&openid.ns=http%3A%2F%2Fspecs.openid.net%2Fauth%2F2.0&openid.ns.pape=http%3A%2F%2Fspecs.openid.net%2Fextensions%2Fpape%2F1.0&openid.pape.max_auth_age=0&openid.return_to=https%3A%2F%2Fwww.amazon.co.uk%2Fgp%2Fcss%2Fhomepage.html%3Fie%3DUTF8%26ref_%3Dya_forgot_password
p62
aVhttps://www.amazon.co.uk:443/gp/redirect.html?location=https://www.audible.co.uk/account-details/ref=ya_mng_audible&token=1DC3062364FB8268C1F0A44548643EC7C91852CE&source=standards
p63
aVhttps://www.amazon.co.uk:443/gp/redirect.html?ie=UTF8&location=https%3A%2F%2Fsellercentral.amazon.co.uk%2Fgp%2Fhomepage.html%3Fld%3DAZUKSOAYA&source=standards&token=AD6C5C9DF86610A17F1C5F6182363651D3BE8FDB
p64
aVhttps://www.amazon.co.uk:443/gp/redirect.html?ie=UTF8&location=https%3A%2F%2Fsellercentral.amazon.co.uk%2Fgp%2Fflex%2Fsign-in-syh.html%3Fldcode%3DAZAYA&source=standards&token=AD6C5C9DF86610A17F1C5F6182363651D3BE8FDB
p65
aVhttps://www.amazon.jobs/en-gb
p66
aVhttps://www.amazon.co.uk/about
p67
aVhttps://services.amazon.co.uk/services/sell-online/how-it-works-pro.html?ld=AZUKSOAFooter
p68
aVhttps://affiliate-program.amazon.co.uk
p69
aVhttps://services.amazon.co.uk/services/fulfilment-by-amazon/features-benefits/?ld=AZUKFBAFooter
p70
aVhttps://services.amazon.co.uk/services/sponsored-products/how-it-works.html/ref=AMZfooter_UK_SP?ld=AZUKSPFooter
p71
aVhttps://kdp.amazon.com/help/?topicId=A32I2OF1510VZV
p72
aVhttps://payments.amazon.co.uk?ld=AWREUKAPAFooter
p73
aVhttps://services.amazon.co.uk/services.html?ld=AZUKALLFooter
p74
aVhttps://www.amazon.co.uk/membershiprewards
p75
aVhttps://www.amazon.com.au
p76
aVhttps://www.amazon.com.br
p77
aVhttps://www.amazon.ca/
p78
aVhttps://www.amazon.cn/
p79
aVhttps://www.amazon.fr/
p80
aVhttps://www.amazon.de/
p81
aVhttps://www.amazon.in/
p82
aVhttps://www.amazon.it/
p83
aVhttps://www.amazon.co.jp/
p84
aVhttps://www.amazon.com.mx/
p85
aVhttps://www.amazon.nl/
p86
aVhttps://www.amazon.es/
p87
aVhttps://www.amazon.com/
p88
aVhttps://www.abebooks.co.uk/
p89
aVhttps://www.acx.com/
p90
aVhttp://www.buyvip.com/
p91
aVhttps://tickets.amazon.co.uk/?ref_=al_AMZ_footer
p92
aVhttps://aws.amazon.com/what-is-cloud-computing/?sc_channel=EL&sc_campaign=UK_amazonfooter
p93
aVhttps://www.audible.co.uk/
p94
aVhttps://www.bookdepository.com/
p95
aVhttps://www.createspace.com/diy-gb?ref=1681470
p96
aVhttps://www.diapers.com/
p97
aVhttps://www.dpreview.com
p98
aVhttps://www.goodreads.com/
p99
aVhttps://www.imdb.com/
p100
aVhttps://www.junglee.com/
p101
aVhttps://kdp.amazon.com/
p102
aVhttps://www.myhabit.com/
p103
aVhttps://www.shopbop.com/uk/welcome
p104
aVhttps://www.yoyo.com/
p105
aVhttp://headerphile.blogspot.co.uk/
p106
aVhttp://headerphile.blogspot.no/search/label/SDL2%20Tutorial
p107
aVhttp://headerphile.blogspot.no/2014/04/setting-up-sdl2.html
p108
aVhttp://headerphile.blogspot.no/2014/04/a-quick-introduction-to-sdl-2-part-1.html
p109
aVhttp://headerphile.blogspot.no/2014/04/part-3-game-programming-in-sdl2-drawing.html
p110
aVhttp://headerphile.blogspot.no/2014/04/part-3-game-programming-in-sdl2-making.html
p111
aVhttp://headerphile.blogspot.no/2014/04/part-5-game-programming-in-sdl2.html
p112
aVhttp://headerphile.blogspot.no/2014/05/part-5-game-programming-in-sdl2-lets.html
p113
aVhttp://headerphile.blogspot.no/2014/06/part-7-game-programming-in-sdl2-using.html
p114
aVhttp://headerphile.blogspot.no/2014/06/part-8-its-time-for-another-update.html
p115
aVhttp://headerphile.blogspot.no/2014/07/part-9-no-more-delays.html
p116
aVhttp://headerphile.blogspot.no/2014/07/sdl2-part-10-text-rendering.html
p117
aVhttp://headerphile.blogspot.no/search/label/Cpp11
p118
aVhttp://headerphile.blogspot.no/2014/04/my-favorite-c11-property.html
p119
aVhttp://headerphile.blogspot.no/2014/07/my-favorite-c-features-chrono-part-2.html
p120
aVhttp://headerphile.blogspot.no/2014/08/c11-part-3-smart-pointers.html
p121
aVhttps://plus.google.com/112142210174405303471
p122
aVhttps://www.blogger.com/post-edit.g?blogID=7328688583065166977&postID=1175179313374429232&from=pencil
p123
aVhttps://www.blogger.com/share-post.g?blogID=7328688583065166977&postID=1175179313374429232&target=email
p124
aVhttps://www.blogger.com/share-post.g?blogID=7328688583065166977&postID=1175179313374429232&target=blog
p125
aVhttps://www.blogger.com/share-post.g?blogID=7328688583065166977&postID=1175179313374429232&target=twitter
p126
aVhttps://www.blogger.com/share-post.g?blogID=7328688583065166977&postID=1175179313374429232&target=facebook
p127
aVhttps://www.blogger.com/share-post.g?blogID=7328688583065166977&postID=1175179313374429232&target=pinterest
p128
aVhttp://headerphile.blogspot.co.uk/search/label/C%2B%2B
p129
aVhttp://headerphile.blogspot.co.uk/search/label/C%2B%2B11
p130
aVhttp://headerphile.blogspot.co.uk/search/label/chrono
p131
aVhttp://headerphile.blogspot.co.uk/search/label/Data%20Structures
p132
aVhttps://www.blogger.com/comment-iframe.g?blogID=7328688583065166977&postID=1175179313374429232
p133
aVhttp://headerphile.blogspot.co.uk/2014/07/sdl2-part-10-text-rendering.html
p134
aVhttp://headerphile.blogspot.co.uk/2014/07/my-favorite-c-features-chrono-part-2.html
p135
aVhttp://headerphile.blogspot.com/feeds/1175179313374429232/comments/default
p136
aVhttp://headerphile.blogspot.no/2014/07/contents-of-this-blog.html
p137
aVhttp://headerphile.blogspot.no/search/label/Data%20Structures
p138
aVhttps://github.com/olevegard
p139
aVhttps://www.blogger.com
p140
aVhttps://store.steampowered.com//login/?redir=%3Fcc%3Duk
p141
aVhttp://store.steampowered.com/
p142
aVhttp://store.steampowered.com/explore/
p143
aVhttp://store.steampowered.com/curators/
p144
aVhttp://steamcommunity.com/my/wishlist/
p145
aVhttp://store.steampowered.com/news/
p146
aVhttp://store.steampowered.com/stats/
p147
aVhttp://steamcommunity.com/
p148
aVhttp://steamcommunity.com/discussions/
p149
aVhttp://steamcommunity.com/workshop/
p150
aVhttp://steamcommunity.com/greenlight/
p151
aVhttp://steamcommunity.com/market/
p152
aVhttp://steamcommunity.com/?subsection=broadcasts
p153
aVhttps://help.steampowered.com/
p154
aVhttp://store.steampowered.com/privacy_agreement/
p155
aVhttp://www.valvesoftware.com/legal.htm
p156
aVhttp://store.steampowered.com/subscriber_agreement/
p157
aVhttp://store.steampowered.com/steam_refunds/
p158
aVhttp://store.steampowered.com/about/
p159
aVhttp://translation.steampowered.com
p160
aVhttp://store.steampowered.com/genre/Free%20to%20Play/?snr=1_4_4__125
p161
aVhttp://store.steampowered.com/genre/Early%20Access/?snr=1_4_4__125
p162
aVhttp://store.steampowered.com/tag/en/Action/?snr=1_4_4__125
p163
aVhttp://store.steampowered.com/tag/en/Adventure/?snr=1_4_4__125
p164
aVhttp://store.steampowered.com/tag/en/Casual/?snr=1_4_4__125
p165
aVhttp://store.steampowered.com/tag/en/Indie/?snr=1_4_4__125
p166
aVhttp://store.steampowered.com/tag/en/Massively%20Multiplayer/?snr=1_4_4__125
p167
aVhttp://store.steampowered.com/tag/en/Racing/?snr=1_4_4__125
p168
aVhttp://store.steampowered.com/tag/en/RPG/?snr=1_4_4__125
p169
aVhttp://store.steampowered.com/tag/en/Simulation/?snr=1_4_4__125
p170
aVhttp://store.steampowered.com/tag/en/Sports/?snr=1_4_4__125
p171
aVhttp://store.steampowered.com/tag/en/Strategy/?snr=1_4_4__125
p172
aVhttp://store.steampowered.com/cart/?snr=1_4_4__12
p173
aVhttp://store.steampowered.com/?snr=1_4_4__12
p174
aVhttp://store.steampowered.com/search/?snr=1_4_4__12#sort_by=_ASC&category1=998&page=1&tags=-1
p175
aVhttp://store.steampowered.com/genre/Free%20to%20Play/?snr=1_4_4__12
p176
aVhttp://store.steampowered.com/genre/Early%20Access/?snr=1_4_4__12
p177
aVhttp://store.steampowered.com/freestuff/demos/?snr=1_4_4__12
p178
aVhttp://store.steampowered.com/search/?term=&snr=1_4_4__12#sort_by=_ASC&vrsupport=101%2C102&page=1
p179
aVhttp://store.steampowered.com/tag/en/Action/?snr=1_4_4__12
p180
aVhttp://store.steampowered.com/tag/en/Adventure/?snr=1_4_4__12
p181
aVhttp://store.steampowered.com/tag/en/Casual/?snr=1_4_4__12
p182
aVhttp://store.steampowered.com/tag/en/Indie/?snr=1_4_4__12
p183
aVhttp://store.steampowered.com/tag/en/Massively%20Multiplayer/?snr=1_4_4__12
p184
aVhttp://store.steampowered.com/tag/en/Racing/?snr=1_4_4__12
p185
aVhttp://store.steampowered.com/tag/en/RPG/?snr=1_4_4__12
p186
aVhttp://store.steampowered.com/tag/en/Simulation/?snr=1_4_4__12
p187
aVhttp://store.steampowered.com/tag/en/Sports/?snr=1_4_4__12
p188
aVhttp://store.steampowered.com/tag/en/Strategy/?snr=1_4_4__12
p189
aVhttp://store.steampowered.com/tag/browse/?snr=1_4_4__12
p190
aVhttp://store.steampowered.com/search/?term=&sort_by=_ASC&os=mac&page=1&snr=1_4_4__12
p191
aVhttp://store.steampowered.com/search/?term=&sort_by=_ASC&os=linux&page=1&snr=1_4_4__12
p192
aVhttp://store.steampowered.com/search/?snr=1_4_4__12#sort_by=_ASC&category1=994&page=1
p193
aVhttp://store.steampowered.com/tag/en/Animation%20%26%20Modeling/?snr=1_4_4__12
p194
aVhttp://store.steampowered.com/tag/en/Audio%20Production/?snr=1_4_4__12
p195
aVhttp://store.steampowered.com/tag/en/Design%20%26%20Illustration/?snr=1_4_4__12
p196
aVhttp://store.steampowered.com/tag/en/Education/?snr=1_4_4__12
p197
aVhttp://store.steampowered.com/tag/en/Game%20Development/?snr=1_4_4__12
p198
aVhttp://store.steampowered.com/tag/en/Photo%20Editing/?snr=1_4_4__12
p199
aVhttp://store.steampowered.com/tag/en/Utilities/?snr=1_4_4__12
p200
aVhttp://store.steampowered.com/tag/en/Video%20Production/?snr=1_4_4__12
p201
aVhttp://store.steampowered.com/tag/en/Web%20Publishing/?snr=1_4_4__12
p202
aVhttp://store.steampowered.com/hardware?snr=1_4_4__12
p203
aVhttp://store.steampowered.com/app/353370?snr=1_4_4__12
p204
aVhttp://store.steampowered.com/app/353380?snr=1_4_4__12
p205
aVhttp://store.steampowered.com/hardware/?snr=1_4_4__12#Machines
p206
aVhttp://store.steampowered.com/app/358040?snr=1_4_4__12
p207
aVhttp://store.steampowered.com/search/?snr=1_4_4__12#sort_by=_ASC&category1=992&page=1&tags=-1
p208
aVhttp://store.steampowered.com/search/?snr=1_4_4__12#category1=992&sort_by=Released_DESC&page=1&tags=15339
p209
aVhttp://store.steampowered.com/search/?snr=1_4_4__12#category1=992&sort_by=Released_DESC&page=1&tags=4242
p210
aVhttp://store.steampowered.com/search/?snr=1_4_4__12#category1=992&sort_by=Released_DESC&page=1&tags=4700
p211
aVhttp://store.steampowered.com/search/?snr=1_4_4__12#category1=992&sort_by=Released_DESC&page=1&tags=4234
p212
aVhttp://store.steampowered.com/search/?snr=1_4_4__12#category1=992&sort_by=Released_DESC&page=1&tags=12057
p213
aVhttp://store.steampowered.com/search/?snr=1_4_4__12#category1=992&sort_by=Released_DESC&page=1&tags=19
p214
aVhttp://store.steampowered.com/search/?snr=1_4_4__12#category1=992&sort_by=Released_DESC&page=1&tags=4085
p215
aVhttp://store.steampowered.com/search/?snr=1_4_4__12#category1=992&sort_by=Released_DESC&page=1&tags=1719
p216
aVhttp://store.steampowered.com/search/?snr=1_4_4__12#category1=992&sort_by=Released_DESC&page=1&tags=5984
p217
aVhttp://store.steampowered.com/search/?snr=1_4_4__12#category1=992&sort_by=Released_DESC&page=1&tags=150626
p218
aVhttp://store.steampowered.com/search/?snr=1_4_4__12#category1=992&sort_by=Released_DESC&page=1&tags=1667
p219
aVhttp://store.steampowered.com/search/?snr=1_4_4__12#category1=992&sort_by=Released_DESC&page=1&tags=3942
p220
aVhttp://store.steampowered.com/search/?snr=1_4_4__12#category1=992&sort_by=Released_DESC&page=1&tags=4064
p221
aVhttp://store.steampowered.com/news/?snr=1_4_4__12
p222
aVhttp://store.steampowered.com/recommended/?snr=1_4_4__12
p223
aVhttp://store.steampowered.com/curators/?snr=1_4_4__12
p224
aVhttp://store.steampowered.com/updated/all/?snr=1_4_4__12
p225
aVhttp://store.steampowered.com/sale/wargame/?snr=1_4_4__40
p226
aVhttp://store.steampowered.com/app/226860/?snr=1_4_4__40_1
p227
aVhttp://store.steampowered.com/app/262060/?snr=1_4_4__40_2
p228
aVhttp://store.steampowered.com/search/?filter=popularnew&sort_by=Released_DESC&os=win
p229
aVhttp://store.steampowered.com/updated/all/
p230
aVhttp://store.steampowered.com/login/
p231
aVhttp://store.steampowered.com/join/
p232
aVhttps://store.steampowered.com/login/
p233
aVhttps://store.steampowered.com/join/
p234
aVhttp://store.steampowered.com/explore/startnew
p235
aVhttp://store.steampowered.com/hardware/?snr=1_4_4__132
p236
aVhttp://store.steampowered.com/curators/curatorscombinedrecommendations/
p237
aVhttp://store.steampowered.com/app/295690/?snr=1_4_4__tab-PopularNewReleases
p238
aVhttp://store.steampowered.com/app/270210/?snr=1_4_4__tab-PopularNewReleases
p239
aVhttp://store.steampowered.com/app/311010/?snr=1_4_4__tab-PopularNewReleases
p240
aVhttp://store.steampowered.com/app/401680/?snr=1_4_4__tab-PopularNewReleases
p241
aVhttp://store.steampowered.com/app/381120/?snr=1_4_4__tab-PopularNewReleases
p242
aVhttp://store.steampowered.com/app/476490/?snr=1_4_4__tab-PopularNewReleases
p243
aVhttp://store.steampowered.com/app/452420/?snr=1_4_4__tab-PopularNewReleases
p244
aVhttp://store.steampowered.com/app/223100/?snr=1_4_4__tab-PopularNewReleases
p245
aVhttp://store.steampowered.com/app/438680/?snr=1_4_4__tab-PopularNewReleases
p246
aVhttp://store.steampowered.com/app/443730/?snr=1_4_4__tab-PopularNewReleases
p247
aVhttp://store.steampowered.com/search/?sort_by=Released_DESC&os=win
p248
aVhttp://store.steampowered.com/app/364360/?snr=1_4_4__104
p249
aVhttp://store.steampowered.com/app/379720/?snr=1_4_4__104
p250
aVhttp://store.steampowered.com/app/281990/?snr=1_4_4__104
p251
aVhttp://store.steampowered.com/app/292030/?snr=1_4_4__104
p252
aVhttp://store.steampowered.com/app/435881/?snr=1_4_4__104
p253
aVhttp://store.steampowered.com/app/377160/?snr=1_4_4__104
p254
aVhttp://store.steampowered.com/app/346110/?snr=1_4_4__104
p255
aVhttp://store.steampowered.com/app/428690/?snr=1_4_4__104
p256
aVhttp://store.steampowered.com/app/730/?snr=1_4_4__104
p257
aVhttp://store.steampowered.com/sub/68479/?snr=1_4_4__104
p258
aVhttp://store.steampowered.com/search/?filter=topsellers&os=win
p259
aVhttp://store.steampowered.com/app/467850/?snr=1_4_4__tab-Upcoming
p260
aVhttp://store.steampowered.com/app/470130/?snr=1_4_4__tab-Upcoming
p261
aVhttp://store.steampowered.com/app/420060/?snr=1_4_4__tab-Upcoming
p262
aVhttp://store.steampowered.com/app/466710/?snr=1_4_4__tab-Upcoming
p263
aVhttp://store.steampowered.com/app/466020/?snr=1_4_4__tab-Upcoming
p264
aVhttp://store.steampowered.com/app/458750/?snr=1_4_4__tab-Upcoming
p265
aVhttp://store.steampowered.com/app/473660/?snr=1_4_4__tab-Upcoming
p266
aVhttp://store.steampowered.com/app/367340/?snr=1_4_4__tab-Upcoming
p267
aVhttp://store.steampowered.com/app/468820/?snr=1_4_4__tab-Upcoming
p268
aVhttp://store.steampowered.com/app/345480/?snr=1_4_4__tab-Upcoming
p269
aVhttp://store.steampowered.com/search/?filter=comingsoon&os=win
p270
aVhttp://store.steampowered.com/app/292030/?snr=1_4_4__tab-Specials
p271
aVhttp://store.steampowered.com/app/377160/?snr=1_4_4__tab-Specials
p272
aVhttp://store.steampowered.com/app/346110/?snr=1_4_4__tab-Specials
p273
aVhttp://store.steampowered.com/sub/68479/?snr=1_4_4__tab-Specials
p274
aVhttp://store.steampowered.com/app/262060/?snr=1_4_4__tab-Specials
p275
aVhttp://store.steampowered.com/sub/68475/?snr=1_4_4__tab-Specials
p276
aVhttp://store.steampowered.com/app/226860/?snr=1_4_4__tab-Specials
p277
aVhttp://store.steampowered.com/app/283640/?snr=1_4_4__tab-Specials
p278
aVhttp://store.steampowered.com/sub/45320/?snr=1_4_4__tab-Specials
p279
aVhttp://store.steampowered.com/app/242640/?snr=1_4_4__tab-Specials
p280
aVhttp://store.steampowered.com/search/?specials=1&os=win
p281
aVhttp://store.steampowered.com/app/224740/?snr=1_4_4__43
p282
aVhttp://store.steampowered.com/app/292030/?snr=1_4_4__112
p283
aVhttp://store.steampowered.com/app/377160/?snr=1_4_4__112
p284
aVhttp://store.steampowered.com/app/346110/?snr=1_4_4__112
p285
aVhttp://store.steampowered.com/sub/68479/?snr=1_4_4__112
p286
aVhttp://store.steampowered.com/app/4000/?snr=1_4_4__127
p287
aVhttp://store.steampowered.com/app/391540/?snr=1_4_4__127
p288
aVhttp://store.steampowered.com/app/242640/?snr=1_4_4__127
p289
aVhttp://store.steampowered.com/app/105600/?snr=1_4_4__127
p290
aVhttp://store.steampowered.com/app/270210/?snr=1_4_4__127
p291
aVhttp://store.steampowered.com/app/227300/?snr=1_4_4__127
p292
aVhttp://store.steampowered.com/search/?filter=ut1&category1=998&os=
p293
aVhttp://store.steampowered.com/search/?filter=ut2&category1=998&os=
p294
aVhttp://www.valvesoftware.com
p295
aVhttp://www.valvesoftware.com/about.html
p296
aVhttp://www.valvesoftware.com/business/
p297
aVhttp://www.steampowered.com/steamworks/
p298
aVhttp://www.valvesoftware.com/jobs.html
p299
aVhttp://steamcommunity.com/greenlight
p300
aVhttp://www.facebook.com/Steam
p301
aVhttp://twitter.com/steam_games
p302
aVhttp://store.steampowered.com/explore/random/
p303
aVhttp://dispatches.cheatcc.com
p304
aVhttp://videos.cheatcc.com
p305
aVhttp://lists.cheatcc.com
p306
aVhttp://www.cheatcc.com/extra
p307
aVhttp://news.cheatcc.com
p308
aVhttp://www.cheatcc.com/xbox360/xbox360menu.html
p309
aVhttp://www.cheatcc.com/ps3/ps3menu.html
p310
aVhttp://www.cheatcc.com/xboxone/xboxonemenu.html
p311
aVhttp://www.cheatcc.com/ps4/ps4menu.html
p312
aVhttp://www.cheatcc.com/wiiu/wiiumenu.html
p313
aVhttp://www.cheatcc.com/3ds/3dsmenu.html
p314
aVhttp://www.cheatcc.com/psvita/vitamenu.html
p315
aVhttp://www.cheatcc.com/wii/wiimenu.html
p316
aVhttp://www.cheatcc.com/ds/dsmenu.html
p317
aVhttp://www.cheatcc.com/psp/pspmenu.html
p318
aVhttp://www.cheatcc.com/psx2/ps2menu.html
p319
aVhttp://www.cheatcc.com/xb/xboxmenu.html
p320
aVhttp://www.cheatcc.com/gc/gcmenu.html
p321
aVhttp://www.cheatcc.com/psx/codes/psxmenu.html
p322
aVhttp://www.cheatcc.com/n64/n64menu.html
p323
aVhttp://www.cheatcc.com/gba/gbamenu.html
p324
aVhttp://www.cheatcc.com/gb/gbmenu.html
p325
aVhttp://www.cheatcc.com/dc/dcmenu.html
p326
aVhttp://www.cheatcc.com/dvd/dvdmenu.html
p327
aVhttp://www.cheatcc.com
p328
aVhttps://www.facebook.com/cheatcodecentral
p329
aVhttps://twitter.com/cheatcc
p330
aVhttp://lists.cheatcc.com/461
p331
aVhttp://cdn.cheatcc.com/sliders/slider02_20160520.jpg
p332
aVhttp://cdn.cheatcc.com/sliders/slider02_20160519.jpg
p333
aVhttp://cdn.cheatcc.com/sliders/slider02_20160518.jpg
p334
aVhttp://cdn.cheatcc.com/sliders/slider02_20160517.jpg
p335
aVhttp://cdn.cheatcc.com/sliders/slider02_20160516.jpg
p336
aVhttp://videos.cheatcc.com/
p337
aVhttp://www.cheatcc.com/ccc_newsserver/News.aspx
p338
aVhttp://www.trygames.com/aff=t_03la
p339
aVhttp://www.cheatcc.com/ps4/rev/uncharted4thiefsendreview.html
p340
aVhttp://www.cheatcc.com/ps4/rev/battlebornreview.html
p341
aVhttp://www.cheatcc.com/xboxone/rev/gearsofwar4betapreview.html
p342
aVhttp://www.cheatcc.com/pc/rev/skyshinesbedlampreview.html
p343
aVhttp://www.cheatcc.com/pc/rev/xcom2preview.html
p344
aVhttp://news.cheatcc.com/articles/398654
p345
aVhttp://news.cheatcc.com/articles/398655
p346
aVhttp://news.cheatcc.com/articles/398652
p347
aVhttp://news.cheatcc.com/articles/398653
p348
aVhttp://news.cheatcc.com/articles/398649
p349
aVhttp://news.cheatcc.com/articles/398650
p350
aVhttp://news.cheatcc.com/articles/398651
p351
aVhttp://news.cheatcc.com/articles/398648
p352
aVhttp://news.cheatcc.com/articles/398647
p353
aVhttp://news.cheatcc.com/articles/398645
p354
aVhttp://news.cheatcc.com/articles/398646
p355
aVhttp://news.cheatcc.com/articles/398644
p356
aVhttp://news.cheatcc.com/articles/398643
p357
aVhttp://news.cheatcc.com/articles/398642
p358
aVhttp://news.cheatcc.com/articles/398640
p359
aVhttp://news.cheatcc.com/articles/398641
p360
aVhttp://news.cheatcc.com/articles/398638
p361
aVhttp://news.cheatcc.com/articles/398639
p362
aVhttp://news.cheatcc.com/articles/398637
p363
aVhttp://news.cheatcc.com/articles/398635
p364
aVhttp://n4g.com/news/1908176/new-petition-aims-to-remove-igns-doom-review-cause-it-affects-metacritic
p365
aVhttp://n4g.com/news/1907770/batman-return-to-arkham-even-more-unreal-engine-3-versus-unreal-engine-4-comparison-screenshots
p366
aVhttp://n4g.com/news/1908465/the-witcher-iii-blood-and-wine-showcased-in-ten-new-gorgeous-screenshots
p367
aVhttp://n4g.com/news/1908649/eight-most-promising-looking-games-that-were-cancelled
p368
aVhttp://n4g.com/news/1908409/yooka-laylee-news-screenshots-and-details-announced
p369
aVhttp://n4g.com/news/1908315/dishonored-2-dev-on-whats-possible-on-ps4-and-xbox-one-vs-ps3-and-xbox-360
p370
aVhttp://n4g.com/news/1908376/what-we-want-to-see-in-fifa-17
p371
aVhttp://n4g.com/news/1908168/11-highly-anticipated-games-releasing-in-june
p372
aVhttp://n4g.com/news/1908540/every-overwatch-pre-order-bonus-and-edition
p373
aVhttp://n4g.com/news/1908619/digital-foundry-face-off-doom
p374
aVhttp://dispatches.cheatcc.com/2294
p375
aVhttp://dispatches.cheatcc.com/2293
p376
aVhttp://dispatches.cheatcc.com/2295
p377
aVhttp://dispatches.cheatcc.com/2285
p378
aVhttp://dispatches.cheatcc.com/2283
p379
aVhttp://lists.cheatcc.com/459
p380
aVhttp://dispatches.cheatcc.com/2287
p381
aVhttp://dispatches.cheatcc.com/2278
p382
aVhttp://dispatches.cheatcc.com/2284
p383
aVhttp://dispatches.cheatcc.com/2286
p384
aVhttp://polls.cheatcc.com/pollHistory.aspx
p385
aVhttp://www.gameogre.com/
p386
aVhttp://www.cheatcc.com/
p387
aVhttp://www.cheatcc.com/podcast/
p388
aVhttp://www.cheatcc.com/extra/
p389
aVhttp://www.cheatcc.com/advertise.aspx
p390
aVhttp://www.cheatcc.com/email.html
p391
aVhttp://dispatches.cheatcc.com/2290
p392
aVhttp://dispatches.cheatcc.com/2282
p393
aVhttp://dispatches.cheatcc.com/2271
p394
aVhttp://dispatches.cheatcc.com/2281
p395
aVhttp://dispatches.cheatcc.com/2268
p396
aVhttp://www.cheatcc.com/ps4/divisioncheatscodes.html
p397
aVhttp://www.cheatcc.com/xboxone/grandtheftauto5cheatscodes.html
p398
aVhttp://www.cheatcc.com/ps4/grandtheftauto5cheatscodes.html
p399
aVhttp://www.facebook.com/home.php?#!/pages/Cheat-Code-Central/61147460707
p400
aVhttp://twitter.com/CheatCC
p401
aVhttp://www.cheatcc.com/privacy.html
p402
aVhttp://www.facebook.com/cheatcodecentral
p403
aVhttp://www.ebay.co.uk
p404
aVhttp://www.ebay.co.uk/sch/ebayadvsearch
p405
aVhttps://signin.ebay.co.uk/ws/eBayISAPI.dll?SignIn&_trksid=m570.l3348
p406
aVhttp://www.ebay.co.uk/rpp/deals
p407
aVhttp://sell.ebay.co.uk/sell
p408
aVhttp://ocs.ebay.co.uk/ws/eBayISAPI.dll?CustomerSupport
p409
aVhttp://my.ebay.co.uk/ws/eBayISAPI.dll?MyEbay&gbh=1
p410
aVhttp://www.ebay.co.uk/myb/Summary
p411
aVhttp://www.ebay.co.uk/myb/BidsOffers
p412
aVhttp://www.ebay.co.uk/myb/WatchList
p413
aVhttp://my.ebay.co.uk/ws/eBayISAPI.dll?MyEbayBeta&CurrentPage=MyeBayNextListIndex&wl=1
p414
aVhttp://my.ebay.co.uk/ws/eBayISAPI.dll?MyEbayBeta&CurrentPage=MyeBayNextListIndex&tagId=-100&ssPageName=STRK:ME:LNLK:MESINDXX
p415
aVhttp://www.ebay.co.uk/myb/PurchaseHistory
p416
aVhttp://my.ebay.co.uk/ws/eBayISAPI.dll?MyEbay&gbh=1&CurrentPage=MyeBayAllSelling&ssPageName=STRK:ME:LNLK:MESX
p417
aVhttp://www.ebay.co.uk/cln/_mycollections
p418
aVhttp://my.ebay.co.uk/ws/eBayISAPI.dll?MyEbay&gbh=1&CurrentPage=MyeBayAllFavorites
p419
aVhttp://mesg.ebay.co.uk/mesgweb/ViewMessages/0
p420
aVhttps://reward.ebay.co.uk/rwdwebui/nectar/myebay/main
p421
aVhttp://payments.ebay.co.uk/ws/eBayISAPI.dll?ShopCart&ssPageName=CART:HDR
p422
aVhttps://signin.ebay.co.uk/ws/eBayISAPI.dll?SignIn&ru=http%3A%2F%2Fwww.ebay.co.uk%2Ffeed
p423
aVhttp://www.ebay.co.uk/rpp/fashion
p424
aVhttp://www.ebay.co.uk/rpp/womens-fashion
p425
aVhttp://www.ebay.co.uk/rpp/mens-fashion
p426
aVhttp://www.ebay.co.uk/rpp/kids-fashion
p427
aVhttp://www.ebay.co.uk/rpp/handbag-and-accessories
p428
aVhttp://www.ebay.co.uk/rpp/health-and-beauty
p429
aVhttp://www.ebay.co.uk/rpp/jewellery-watches
p430
aVhttp://www.ebay.co.uk/rpp/fashion-brands
p431
aVhttp://www.ebay.co.uk/rpp/pre-owned-fashion
p432
aVhttp://www.ebay.co.uk/rpp/hng
p433
aVhttp://www.ebay.co.uk/rpp/baby-toddler
p434
aVhttp://www.ebay.co.uk/sch/Home-Furniture/3197/bn_1633685/i.html
p435
aVhttp://www.ebay.co.uk/rpp/garden
p436
aVhttp://www.ebay.co.uk/rpp/celebrations-occasions
p437
aVhttp://www.ebay.co.uk/rpp/crafts
p438
aVhttp://www.ebay.co.uk/sch/DIY-Materials/3187/bn_1838574/i.html
p439
aVhttp://www.ebay.co.uk/sch/Home-Decor/10033/bn_1839832/i.html
p440
aVhttp://www.ebay.co.uk/rpp/pets
p441
aVhttp://www.ebay.co.uk/rpp/electronics
p442
aVhttp://www.ebay.co.uk/rpp/computers-tablets-networking
p443
aVhttp://www.ebay.co.uk/rpp/mobile-home-phone
p444
aVhttp://www.ebay.co.uk/rpp/tv-video-audio
p445
aVhttp://www.ebay.co.uk/rpp/camera-photo
p446
aVhttp://www.ebay.co.uk/sch/Vehicle-GPS-Audio-and-In-Car-Technology/3270/bn_886758/i.html
p447
aVhttp://www.ebay.co.uk/sch/Home-Audio-HiFi-Separates/14969/bn_1838773/i.html
p448
aVhttp://www.ebay.co.uk/sch/Laptops-and-Netbooks/175672/bn_1631140/i.html
p449
aVhttp://www.ebay.co.uk/rpp/sports-hobbies-leisure
p450
aVhttp://www.ebay.co.uk/chp/musical-instruments
p451
aVhttp://www.ebay.co.uk/chp/sporting-goods
p452
aVhttp://www.ebay.co.uk/chp/toys-games
p453
aVhttp://www.ebay.co.uk/sch/Cycling/7294/bn_1669642/i.html
p454
aVhttp://www.ebay.co.uk/sch/Fishing/1492/bn_1838600/i.html
p455
aVhttp://www.ebay.co.uk/sch/Golf/1513/bn_1839270/i.html
p456
aVhttp://www.ebay.co.uk/sch/Fitness-Running-Yoga/15273/bn_1841074/i.html
p457
aVhttp://www.ebay.co.uk/sch/Equestrian/3153/bn_1841777/i.html
p458
aVhttp://www.ebay.co.uk/rpp/collectables-antiques
p459
aVhttp://www.ebay.co.uk/chp/Antiques
p460
aVhttp://www.ebay.co.uk/chp/collectables
p461
aVhttp://www.ebay.co.uk/chp/pottery-porcelain-glass
p462
aVhttp://www.ebay.co.uk/chp/art
p463
aVhttp://www.ebay.co.uk/chp/coins
p464
aVhttp://www.ebay.co.uk/chp/dolls-bears
p465
aVhttp://www.ebay.co.uk/chp/sports-memorabilia
p466
aVhttp://www.ebay.co.uk/sch/Trains-Railway-Models/180250/bn_1635521/i.html
p467
aVhttp://www.ebay.co.uk/rpp/fragrances
p468
aVhttp://www.ebay.co.uk/rpp/hair-care-styling
p469
aVhttp://www.ebay.co.uk/rpp/make-up
p470
aVhttp://www.ebay.co.uk/rpp/facial-skin-care
p471
aVhttp://www.ebay.co.uk/rpp/mobility-disability-medical
p472
aVhttp://www.ebay.co.uk/sch/Manicure-Pedicure-/47945/i.html
p473
aVhttp://www.ebay.co.uk/rpp/shaving-hair-removal
p474
aVhttp://www.ebay.co.uk/sch/Sun-Care-Tanning-/31772/i.html
p475
aVhttp://www.ebay.co.uk/motors
p476
aVhttp://www.ebay.co.uk/sch/Cars-/9801/i.html
p477
aVhttp://www.ebay.co.uk/sch/Motorcycles-Scooters-/422/i.html?
p478
aVhttp://www.ebay.co.uk/sch/Vehicle-Parts-Accessories-/131090/i.html
p479
aVhttp://www.ebay.co.uk/sch/Car-Parts-/6030/i.html
p480
aVhttp://www.ebay.co.uk/sch/Car-Tuning-Styling-/14761/i.html
p481
aVhttp://www.ebay.co.uk/sch/Car-Wheels-Tyres-Trims-/14770/i.html
p482
aVhttp://www.ebay.co.uk/sch/Motorcycle-Parts-Accessories-/14780/i.html
p483
aVhttp://www.ebay.co.uk/rpp/deals/electronics
p484
aVhttp://www.ebay.co.uk/rpp/deals/fashion
p485
aVhttp://www.ebay.co.uk/rpp/deals/home-garden
p486
aVhttp://www.ebay.co.uk/rpp/deals/other/health-beauty
p487
aVhttp://www.ebay.co.uk/rpp/deals/other/motor
p488
aVhttp://www.ebay.co.uk/rpp/deals/
p489
aVhttp://www.ebay.co.uk/rpp/sale-events
p490
aVhttp://www.ebay.co.uk/sme/bestoffers.html
p491
aVhttp://www.ebay.co.uk/rpp/pre-owned-picks
p492
aVhttp://srx.uk.ebayrtm.com/clk?RtmClk&u=1H4sIAAAAAAAAAA3NuwrDIBhA4V3wHYTO9W60AR%2FBpcnYxSRC07TkxxjEt2%2BWM31wbkMsJMRGpCDi0Qvda0nCMBLJRYdRPv27FHj1jNVaaZpio%2FNOz41lALas7Q55%2F6S5HAyjuHt%2BdV18iEdJ%2BQkwph98Y0kYTYuXSlplNUbrRYyxnTHcGW0dV53j2l67zQuJ0R%2FtLmKKlQAAAA%3D%3D&ch=3&g=d63e36171540a6248633858cffe2e416&aii=5576550854780368047&lid=2327374&m=649675&pi=2057337&_trksid=e100084.m1843
p493
aVhttp://srx.uk.ebayrtm.com/clk?RtmClk&u=1H4sIAAAAAAAAAC3QT2uDMBzG8bvgexBGj9H88lcFGbjCGEwGs8dCiSbSoNYQU8R3Pwe9fOGBz%2Bl5a1VIGrUnBBIoSmAlI0nTXhKCQcSRf1b3ENy1zLJt21LTqT3tl%2FQ5ZjbMWb2s%2FR19tjVglCOCvr%2FQx%2BL1ZNYVTRbZ5XHsubPo7O00oXrRO%2Fp5TDvCAkNRiwIDyqAAQekRJuT7LfjRKT%2Bv1%2BpEhHfu1lt9omcuBqMKkhvWYcZB60EOoAG%2FkH0pSSnPO%2FOvOCE9H3opNC7iSC0VPmp11ag1GP%2Fr3MXMblLBxFGnK0KJpILGkT0I51JwjnPOZI6pyDGTxxNjBXH0BwXULwIvAQAA&ch=3&g=d63e36171540a6248633858cffe2e416&aii=5576550854780368047&lid=2327363&m=649675&pi=2057337&_trksid=e100084.m1843
p494
aVhttp://srx.uk.ebayrtm.com/clk?RtmClk&u=1H4sIAAAAAAAAAC3PTWuDMByA8bvgdxBGj9b8864gY9MdHWMtOxVKTCILKoaYTvrtZ6GX5%2FS7PC8nFbNO3TMMGZQV0IrirDudM4yAp0m41b8x%2BktVFNu2HW2v7ke9HG9j4eJcvE9Kj3lr9WhD%2FvHVgGzecpA%2F%2BadrTN4swUx2XfM2uGl69G9nBRCQQEqOJYfXawyjV2FeL%2FUB8%2BD9VTtzIC3jg1Ullpb2iDIwZhADGEBP5J5KEMJkbx%2BKYazZoAU3qEwTtdRorzN1p9Zow7f3Zzv7SUWbJr2pMcGCcJombieMCc4YkowKiQiXiIr9fKxxmvwDgc4Iph8BAAA%3D&ch=3&g=d63e36171540a6248633858cffe2e416&aii=5576550854780368047&lid=2327364&m=649675&pi=2057337&_trksid=e100084.m1843
p495
aVhttp://srx.uk.ebayrtm.com/clk?RtmClk&u=1H4sIAAAAAAAAAC3Qz2uDMBwF8Lvg%2FyCMHlPz65tEQQarx7lBW7YdCiWayIJaQ0wp%2Fvdz0Ms7PD7v8l5OOmaNXjNKMlKUhJecZs3pnFFMRJqEe%2FUbo7%2BUef54PPa21eu%2Bm%2Ff3IXdxymv7rceI6kMtFXwgor7Qu0NuvqGfIzrMwYx2WRBFJ2%2Bt2YqpdagObhzR22xW9Hkb1%2BcY5YQQITkrCszg9RrD4HWYlku1oyJ4f%2B2c2bEaRG91QZXlLeZAjOllTwzBT%2BSeSjIGqrX%2FCijtoO%2BkMLhIEz1XeEtnqkYv0Yaj92c7%2BVFHmyatqSijkglIE7cRACkAsAIuFWZCYS63Q4aKpckfep94qzYBAAA%3D&ch=3&g=d63e36171540a6248633858cffe2e416&aii=5576550854780368047&lid=2327365&m=649675&pi=2057337&_trksid=e100084.m1843
p496
aVhttp://srx.uk.ebayrtm.com/clk?RtmClk&u=1H4sIAAAAAAAAAC2QT2uDMByG74LfQRg9puaXv1qQ0dlBL0JZZadCiSauYpwhppN%2B%2B1no5bk8z%2BV9384qJJV6JAQSyHfAdowk1blOCAYRR%2F5e3EJwl12aLsuyNY16bNtpex%2FSPozph1XtgA6mHYxHQL5ROXltzTyjg%2B%2BtffJvNZ%2BnEki5R0f1q4%2FGagT7GzpNy6rqabKovCn%2FYzRKiYScAcWcAXu%2FBj845cf5UmyI8M5d215v6IGLzqicZIY1mHHQupMdaMCvqH9VklKeNeZZcUJa3rVSaJzHkZoKvLLXRaXmYPyXc7UZnVXBxFGjC0KJpGLd3q8J51JwjjPOZIapyDCT6ylDweLoH0gVWMo6AQAA&ch=3&g=d63e36171540a6248633858cffe2e416&aii=5576550854780368047&lid=2327366&m=649675&pi=2057337&_trksid=e100084.m1843
p497
aVhttp://www.ebay.co.uk/cln/fashion-curation/Well-Looked-After/298130350019
p498
aVhttp://www.ebay.co.uk/cln/gift-curation/The-Cuban-Prints/128715428014
p499
aVhttp://www.ebay.co.uk/cln/curationteam3/A-Grade-Audio/111724713011
p500
aVhttp://www.ebay.co.uk/cln/lifestyle-curation/More-Bark-than-Bite/160813271015
p501
aVhttp://www.ebay.co.uk/cln/lifestyle-curation/Swing-Hobbies/205593851015
p502
aVhttp://www.ebay.co.uk/cln/home-garden-curation/Richly-Roasted/153900272018
p503
aVhttp://www.ebay.co.uk/cln/promotionsteam1/Road-Trip-Dreaming/287539323012
p504
aVhttp://www.ebay.co.uk/cln/promotionsteam1/Rev-For-Value/213544298012
p505
aVhttp://www.ebay.co.uk/cln/curationteam1/Make-It-Green/83888263019
p506
aVhttp://www.ebay.co.uk/cln/lifestyle-curation/Workout-Plan/127626081015
p507
aVhttp://www.ebay.co.uk/cln/electronics-curation/Tech-it-Out/127530202016
p508
aVhttp://www.ebay.co.uk/cln/lifestyle-curation-2/Beauty-Your-Way/297789136019
p509
aVhttp://www.ebay.co.uk/cln/lifestyle-curation/Sustainably-Stylish/146325768015
p510
aVhttp://www.ebay.co.uk/cln/curationteam1/Interior-Garden/88749463019
p511
aVhttp://www.ebay.co.uk/cln/lifestyle-curation-2/Lean-and-Green/296839143019
p512
aVhttp://www.ebay.co.uk/cln/home-garden-curation/Top-12-Healthy-Kitchen-Gadgets/297817788018
p513
aVhttp://www.ebay.co.uk/cln/kids-curation/All-in-A-Flutter/296852834014
p514
aVhttp://www.ebay.co.uk/cln/kids-curation/In-Control/296851649014
p515
aVhttp://www.ebay.co.uk/itm/Mens-Star-Wars-Darth-Vader-T-Shirts-/282016692287?_trkparms=%26rpp_cid%3D51e7270f5d9bcc4d8a85abad%26rpp_icid%3D51e725c45d9bcc4d8a85abab&_trksid=p2057337.m2592&_trkparms=
p516
aVhttp://www.ebay.co.uk/itm/Childrens-52-Pcs-Craft-Art-Artists-Set-Hexagonal-Box-Crayons-Paints-Pens-Pencils-/361378738790?_trkparms=%26rpp_cid%3D51e7270f5d9bcc4d8a85abad%26rpp_icid%3D51e725c45d9bcc4d8a85abab&_trksid=p2057337.m2592&_trkparms=
p517
aVhttp://www.ebay.co.uk/itm/7-Inch-Quad-Core-1-3Ghz-Android-8GB-Dual-Camera-WiFi-Bluetooth-Mic-Tablet-Black-/311330009574?_trkparms=%26rpp_cid%3D51e7270f5d9bcc4d8a85abad%26rpp_icid%3D51e725c45d9bcc4d8a85abab&_trksid=p2057337.m2592&_trkparms=
p518
aVhttp://www.ebay.co.uk/itm/1-2-Drive-Torque-Wrench-450mm-Long-/291499134957?_trkparms=%26rpp_cid%3D51e7270f5d9bcc4d8a85abad%26rpp_icid%3D51e725c45d9bcc4d8a85abab&_trksid=p2057337.m2592&_trkparms=
p519
aVhttp://www.ebay.co.uk/itm/Mens-Padded-Hooded-Bodywarmer-Gilet-By-Twisted-Faith-/401077317203?_trkparms=%26rpp_cid%3D51e7270f5d9bcc4d8a85abad%26rpp_icid%3D51e725c45d9bcc4d8a85abab&_trksid=p2057337.m2592&_trkparms=
p520
aVhttp://www.ebay.co.uk/itm/Technika-24E21B-FHD-DVD-24-Slim-LED-TV-Full-HD-1080p-Combi-With-Freeview-/351655312330?_trkparms=%26rpp_cid%3D51e7270f5d9bcc4d8a85abad%26rpp_icid%3D51e725c45d9bcc4d8a85abab&_trksid=p2057337.m2592&_trkparms=
p521
aVhttp://www.ebay.co.uk/itm/Womens-Avia-Running-Gym-Trainers-In-Various-Colours-/351717797049?_trkparms=%26rpp_cid%3D51e7270f5d9bcc4d8a85abad%26rpp_icid%3D51e725c45d9bcc4d8a85abab&_trksid=p2057337.m2592&_trkparms=
p522
aVhttp://www.ebay.co.uk/itm/SET-OF-4-CERAMIC-OIL-BURNER-WAX-CANDLE-YANKEE-TART-TEA-LIGHT-HOLDER-LAMP-MELTS-/351699430076?_trkparms=%26rpp_cid%3D51e7270f5d9bcc4d8a85abad%26rpp_icid%3D51e725c45d9bcc4d8a85abab&_trksid=p2057337.m2592&_trkparms=
p523
aVhttp://www.ebay.co.uk/itm/Samsung-Galaxy-S4-GT-I9505-16GB-White-Frost-Unlocked-Smartphone-/381520559583?_trkparms=%26rpp_cid%3D51e7270f5d9bcc4d8a85abad%26rpp_icid%3D51e725c45d9bcc4d8a85abab&_trksid=p2057337.m2592&_trkparms=
p524
aVhttp://www.ebay.co.uk/itm/Mens-Plain-Shirt-by-Brave-Soul-Mombassa-Short-Sleeved-/361221867860?_trkparms=%26rpp_cid%3D51e7270f5d9bcc4d8a85abad%26rpp_icid%3D51e725c45d9bcc4d8a85abab&_trksid=p2057337.m2592&_trkparms=
p525
aVhttp://www.ebay.co.uk/itm/Kids-Boys-Girls-Football-Balance-Bike-Scooter-First-Ride-On-Learning-Training-/361373810133?_trkparms=%26rpp_cid%3D51e7270f5d9bcc4d8a85abad%26rpp_icid%3D51e725c45d9bcc4d8a85abab&_trksid=p2057337.m2592&_trkparms=
p526
aVhttp://www.ebay.co.uk/itm/Apple-iPod-Touch-4th-Generation-Black-8GB-/291738538707?_trkparms=%26rpp_cid%3D51e7270f5d9bcc4d8a85abad%26rpp_icid%3D51e725c45d9bcc4d8a85abab&_trksid=p2057337.m2592&_trkparms=
p527
aVhttp://www.ebay.co.uk/itm/New-Smith-Jones-Soul-Star-Mens-Short-Sleeved-Casual-Summer-Shirts-/222089822382?_trkparms=%26rpp_cid%3D51e7270f5d9bcc4d8a85abad%26rpp_icid%3D51e725c45d9bcc4d8a85abab&_trksid=p2057337.m2592&_trkparms=
p528
aVhttp://www.ebay.co.uk/itm/Large-13L-Cooler-Cool-Bag-Box-Picnic-Camping-Food-Drink-Festival-Shopping-Ice-/400985099116?_trkparms=%26rpp_cid%3D51e7270f5d9bcc4d8a85abad%26rpp_icid%3D51e725c45d9bcc4d8a85abab&_trksid=p2057337.m2592&_trkparms=
p529
aVhttp://www.ebay.co.uk/itm/Linx-7-7-inch-Windows-8-Tablet-Intel-Atom-Z3735G-Quad-Core-1GB-RAM-32GB-Storage-/401081221049?_trkparms=%26rpp_cid%3D51e7270f5d9bcc4d8a85abad%26rpp_icid%3D51e725c45d9bcc4d8a85abab&_trksid=p2057337.m2592&_trkparms=
p530
aVhttp://www.ebay.co.uk/itm/RED-HOT-PROFESSIONAL-STYLE-TRAVEL-COMPACT-FOLDABLE-HAIR-DRYER-W-2-HEAT-SETTINGS-/371136025769?_trkparms=%26rpp_cid%3D51e7270f5d9bcc4d8a85abad%26rpp_icid%3D51e725c45d9bcc4d8a85abab&_trksid=p2057337.m2592&_trkparms=
p531
aVhttp://www.ebay.co.uk/itm/Hanging-feeder-Squirrel-Proof-Guard-Bird-Fat-Ball-Seed-Nut-feeding-GardenTray-/361422902850?_trkparms=%26rpp_cid%3D51e7270f5d9bcc4d8a85abad%26rpp_icid%3D51e725c45d9bcc4d8a85abab&_trksid=p2057337.m2592&_trkparms=
p532
aVhttp://www.ebay.co.uk/itm/Linens-Limited-Goose-Feather-And-Down-Duvet-/291015372368?_trkparms=%26rpp_cid%3D51e7270f5d9bcc4d8a85abad%26rpp_icid%3D51e725c45d9bcc4d8a85abab&_trksid=p2057337.m2592&_trkparms=
p533
aVhttp://www.ebay.co.uk/itm/RATTAN-GARDEN-FURNITURE-SET-SOFA-CHAIRS-TABLE-CONSERVATORY-OUTDOOR-PATIO-WICKER-/121599299590?_trkparms=%26rpp_cid%3D51e7273d295b4b785a11f9ab%26rpp_icid%3D51e725fec8741e5ae97d694c&_trksid=p2057337.m2592&_trkparms=
p534
aVhttp://www.ebay.co.uk/itm/Folding-Steel-Car-Dual-Purpose-Motorcycle-Van-Trailer-Loading-Ramp-Single-/131528954249?_trkparms=%26rpp_cid%3D51e7273d295b4b785a11f9ab%26rpp_icid%3D51e725fec8741e5ae97d694c&_trksid=p2057337.m2592&_trkparms=
p535
aVhttp://www.ebay.co.uk/itm/Xbox-One-1TB-Console-Inc-Tom-Clancys-The-Division-UK-PAL-Brand-New-Sealed-/252353250928?_trkparms=%26rpp_cid%3D51e7273d295b4b785a11f9ab%26rpp_icid%3D51e725fec8741e5ae97d694c&_trksid=p2057337.m2592&_trkparms=
p536
aVhttp://www.ebay.co.uk/itm/Nike-Puma-Classic-Elite-Logo-Hoodies-Track-Tops-/272247784416?_trkparms=%26rpp_cid%3D51e7273d295b4b785a11f9ab%26rpp_icid%3D51e725fec8741e5ae97d694c&_trksid=p2057337.m2592&_trkparms=
p537
aVhttp://www.ebay.co.uk/itm/HAWK-TOOLS-50l-50-LITRE-9-6-CFM-2-5HP-GARAGE-PORTABLE-AIR-COMPRESSOR-TANK-KIT-/300919661954?_trkparms=%26rpp_cid%3D51e7273d295b4b785a11f9ab%26rpp_icid%3D51e725fec8741e5ae97d694c&_trksid=p2057337.m2592&_trkparms=
p538
aVhttp://www.ebay.co.uk/itm/MEMORY-FOAM-ORTHOPAEDIC-MATTRESS-DOUBLE-KING-3FT-4FT-5FT-DEPTHS-6-8-10-12-/321142130436?_trkparms=%26rpp_cid%3D51e7273d295b4b785a11f9ab%26rpp_icid%3D51e725fec8741e5ae97d694c&_trksid=p2057337.m2592&_trkparms=
p539
aVhttp://www.ebay.co.uk/itm/Panasonic-Viera-TX-55CR852B-55-inch-SMART-3D-4K-Ultra-HD-Curved-LED-TV-FreesatHD-/322010163050?_trkparms=%26rpp_cid%3D51e7273d295b4b785a11f9ab%26rpp_icid%3D51e725fec8741e5ae97d694c&_trksid=p2057337.m2592&_trkparms=
p540
aVhttp://www.ebay.co.uk/cln
p541
aVhttp://www.ebay.co.uk/usr/argos
p542
aVhttp://www.ebay.co.uk/cln/argos/Save-20-when-you-spend-150-on-Selected-Furniture/299510755016
p543
aVhttp://www.ebay.co.uk/usr/ao
p544
aVhttp://www.ebay.co.uk/cln/ao/Save-up-to-500-on-TVs/298135497013
p545
aVhttp://www.ebay.co.uk/usr/joulesclothingoutlet
p546
aVhttp://www.ebay.co.uk/cln/joulesclothingoutlet/Joules-Accessories/297161810017
p547
aVhttp://www.ebay.co.uk/usr/home-garden-curation
p548
aVhttp://www.ebay.co.uk/cln/argos/Board-Games-Save-up-to-10/300031475016
p549
aVhttp://www.ebay.co.uk/usr/kids-curation
p550
aVhttp://www.ebay.co.uk/usr/lifestyle-curation
p551
aVhttp://www.ebay.co.uk/cln/lifestyle-curation/Zombie-Survival/296792340015
p552
aVhttp://www.ebay.co.uk/cln/home-garden-curation/Home-Cooling/297759618018
p553
aVhttp://www.ebay.co.uk/usr/fashion-curation
p554
aVhttp://www.ebay.co.uk/sch/allcategories/all-categories
p555
aVhttp://pages.ebay.co.uk/help/buy/basics.html
p556
aVhttp://anywhere.ebay.co.uk/mobile/
p557
aVhttp://pages.ebay.co.uk/ebay-money-back-guarantee/
p558
aVhttp://www.ebay.co.uk/rpp/brands
p559
aVhttp://www.ebay.co.uk/gds
p560
aVhttp://pages.ebay.co.uk/ebayforcharity/index.html
p561
aVhttp://stores.ebay.co.uk/
p562
aVhttp://pages.ebay.co.uk/help/sell/selling-basics.html
p563
aVhttp://pages.ebay.co.uk/help/sell/top-rated.html
p564
aVhttp://sellercentre.ebay.co.uk
p565
aVhttp://pages.ebay.co.uk/postagecentre/
p566
aVhttp://portal.ebay.co.uk/seller-protection/
p567
aVhttp://pages.ebay.co.uk/ebayforcharity/sell.html
p568
aVhttp://www.ebayinc.com/who_we_are/one_company
p569
aVhttp://www.gumtree.com/
p570
aVhttp://www.uk.shopping.com/
p571
aVhttp://www.stubhub.co.uk/
p572
aVhttp://motors.ebay.co.uk/
p573
aVhttp://www.ebay-mediacentre.co.uk/About-eBay/About-eBay-29.aspx
p574
aVhttp://www.ebay-mediacentre.co.uk/
p575
aVhttp://www.ebayadvertising.com
p576
aVhttps://www.ebaypartnernetwork.com/files/hub/en-US/index.html?alt=uk
p577
aVhttp://pages.ebay.co.uk/vero/index.html
p578
aVhttps://www.ebayinc.com/global-impact/responsible-practices/
p579
aVhttp://resolutioncentre.ebay.co.uk/
p580
aVhttp://pages.ebay.co.uk/delivery-returns/index.html 
p581
aVhttp://ocs.ebay.co.uk/ws/eBayISAPI.dll?ContactCS&from=GlobalHeader
p582
aVhttp://community.ebay.co.uk/
p583
aVhttp://community.ebay.co.uk/t5/Answer-Centre/ct-p/11900000007
p584
aVhttp://community.ebay.co.uk/t5/Discussion-Boards/ct-p/13
p585
aVhttp://community.ebay.co.uk/t5/Groups/ct-p/11900000000
p586
aVhttp://www2.ebay.com/aw/marketing-uk.shtml
p587
aVhttp://www.ebay.com.au
p588
aVhttp://www.ebay.at
p589
aVhttp://www.ebay.be
p590
aVhttp://www.ebay.ca
p591
aVhttp://www.ebay.cn
p592
aVhttp://www.ebay.fr
p593
aVhttp://www.ebay.de
p594
aVhttp://www.ebay.com.hk
p595
aVhttp://www.ebay.in
p596
aVhttp://www.ebay.ie
p597
aVhttp://www.ebay.it
p598
aVhttp://www.ebay.co.jp
p599
aVhttp://global.gmarket.co.kr/Home/Main
p600
aVhttp://www.ebay.com.my
p601
aVhttp://www.ebay.nl
p602
aVhttp://www.ebay.ph
p603
aVhttp://www.ebay.pl
p604
aVhttp://www.ebay.com.sg
p605
aVhttp://www.ebay.es
p606
aVhttp://www.tradera.com
p607
aVhttp://www.ebay.ch
p608
aVhttp://www.ruten.com.tw
p609
aVhttp://www.ebay.co.th
p610
aVhttp://www.gittigidiyor.com
p611
aVhttp://www.ebay.com
p612
aVhttp://www.ebay.vn
p613
aVhttp://community.ebay.co.uk
p614
aVhttp://pages.ebay.co.uk/safetycentre/index.html
p615
aVhttp://resolutioncentre.ebay.co.uk
p616
aVhttp://partner.ebay.co.uk/
p617
aVhttp://pages.ebay.co.uk/help/policies/index.html
p618
aVhttp://pages.ebay.co.uk/sitemap.html
p619
aVhttp://pages.ebay.co.uk/help/policies/user-agreement.html
p620
aVhttp://pages.ebay.co.uk/help/policies/privacy-policy.html
p621
aVhttp://pages.ebay.co.uk/help/account/cookies-web-beacons.html
p622
aVhttp://cgi6.ebay.co.uk/ws/eBayISAPI.dll?AdChoiceLandingPage&partner=0
p623
aVhttps://signin.ebay.co.uk/ws/eBayISAPI.dll?SignIn&ru=http%3A%2F%2Fwww.ebay.co.uk%2F
p624
aVhttp://anticlown.com/
p625
aVhttp://iwatchstuff.com/
p626
aVhttp://thesuperficial.com/
p627
aVhttp://hedonistica.com/
p628
aVhttp://www.facebook.com/geekologie
p629
aVhttp://twitter.com/geekologie
p630
aVhttp://plus.google.com/+geekologie
p631
aVhttp://geekologie.com/2016/05/pianist-turns-popular-ringtones-into-bea.php
p632
aVhttp://geekologie.com/2016/05/pianist-turns-popular-ringtones-into-bea.php#disqus_thread
p633
aVhttp://sploid.gizmodo.com/hearing-the-piano-versions-of-popular-ringtones-is-quit-1777677252
p634
aVhttp://geekologie.com/2015/07/all-the-music-and-sound-effects-in-super.php
p635
aVhttp://geekologie.com/2016/03/making-due-man-performs-zero-string-bass.php
p636
aVhttp://geekologie.com/2015/05/giant-octobasse-stringed-instrument-can.php
p637
aVhttp://geekologie.com/2016/05/amputee-gamer-gets-metal-gear-solid-insp.php
p638
aVhttp://geekologie.com/2016/05/amputee-gamer-gets-metal-gear-solid-insp.php#disqus_thread
p639
aVhttp://www.kotaku.com.au/2016/05/this-gamer-has-an-arm-inspired-by-big-boss-from-metal-gear-solid/
p640
aVhttp://www.thealternativelimbproject.com/project/phantom-limb/
p641
aVhttp://geekologie.com/2010/09/the-future-is-now-transparent.php
p642
aVhttp://geekologie.com/2016/03/needs-more-pews-laser-blaster-rust-remov.php
p643
aVhttp://geekologie.com/2015/10/oh-wow-spongebob-sings-black-sabbaths-wa.php
p644
aVhttp://geekologie.com/2016/05/pump-to-the-video-p0rnhub-releases-exerc.php
p645
aVhttp://geekologie.com/2016/05/pump-to-the-video-p0rnhub-releases-exerc.php#disqus_thread
p646
aVhttp://mashable.com/2016/05/18/pornhub-sexercise-app/#5iyG9GKumaq0
p647
aVhttp://geekologie.com/2016/02/finally-the-magic-8-ball-sex-toy-youve-b.php
p648
aVhttp://geekologie.com/2016/03/firefighting-fun-throwable-fire-extingui.php
p649
aVhttp://geekologie.com/2015/06/three-schoolchildren-invent-condom-that.php
p650
aVhttp://geekologie.com/2016/05/a-vision-of-the-future-w-augmented-reali.php
p651
aVhttp://geekologie.com/2016/05/a-vision-of-the-future-w-augmented-reali.php#disqus_thread
p652
aVhttp://hedonistica.com/art-and-design/hyper-reality/
p653
aVhttp://geekologie.com/2016/03/wtf-was-that-five-on-five-mma-style-figh.php
p654
aVhttp://geekologie.com/2016/03/damn-rich-people-a-105000-luxury-fountai.php
p655
aVhttp://geekologie.com/2014/04/yep-the-game-of-thrones-themed-performed.php
p656
aVhttp://geekologie.com/2016/05/my-dorm-room-demands-it-an-8-foot-beanba.php
p657
aVhttp://geekologie.com/2016/05/my-dorm-room-demands-it-an-8-foot-beanba.php#disqus_thread
p658
aVhttp://www.ohgizmo.com/2016/05/16/chill-bag-the-eight-foot-bean-bag/
p659
aVhttp://www.amazon.com/gp/product/B00P21UAHK/
p660
aVhttp://geekologie.com/2016/05/i-just-need-four-more-friends-giant-5-pe.php
p661
aVhttp://geekologie.com/2016/04/new-cruise-ship-with-two-level-outdoor-g.php
p662
aVhttp://geekologie.com/2015/07/every-nights-a-sleepover-the-giant-minio.php
p663
aVhttp://geekologie.com/2016/05/extreme-sports-woman-playing-jenga-with.php
p664
aVhttp://geekologie.com/2016/05/extreme-sports-woman-playing-jenga-with.php#disqus_thread
p665
aVhttps://www.facebook.com/WithoutShade
p666
aVhttp://nerdist.com/jenga-played-with-a-whip-is-a-lot-harder-but-way-more-impressive/
p667
aVhttp://geekologie.com/image.php?path=/2016/05/20/claw-machine-winnings.jpg
p668
aVhttp://geekologie.com/2016/04/choo-choo-cool-first-person-view-from-le.php
p669
aVhttp://geekologie.com/2016/04/mad-skills-taiwanese-spintop-trickshot-e.php
p670
aVhttp://geekologie.com/2016/05/woman-loses-her-mind-over-talking-chewba.php
p671
aVhttp://geekologie.com/2016/05/woman-loses-her-mind-over-talking-chewba.php#disqus_thread
p672
aVhttps://www.facebook.com/candaceSpayne
p673
aVhttp://geekologie.com/2016/02/awwww-father-mods-stormtrooper-costume-i.php
p674
aVhttp://geekologie.com/2016/05/i-am-into-this-tailgaters-tow-hitch-doub.php
p675
aVhttp://geekologie.com/2016/05/difficult-trying-to-walk-in-109-mile-per.php
p676
aVhttp://geekologie.com/2016/05/difficult-trying-to-walk-in-109-mile-per.php#disqus_thread
p677
aVhttp://sploid.gizmodo.com/what-its-like-to-walk-against-100-mph-winds-1777148803
p678
aVhttp://geekologie.com/2016/05/physics-and-magic-amazing-marbles-and-ma.php
p679
aVhttp://geekologie.com/2015/12/two-skateboarders-trade-boards-midair-ov.php
p680
aVhttp://geekologie.com/2015/11/amaro-and-waldens-joyride-awesome-video.php
p681
aVhttp://geekologie.com/2016/05/congratulations-man-sets-new-record-for.php
p682
aVhttp://geekologie.com/2016/05/beautiful-giant-octopus-kite-with-waving.php
p683
aVhttp://geekologie.com/2016/05/the-end-nears-dogo-a-tiny-tank-robot-wit.php
p684
aVhttp://geekologie.com/2016/05/there-goes-my-summer-body-reeses-releasi.php
p685
aVhttp://geekologie.com/2016/05/thats-gonna-hurt-what-a-zero-star-crash.php
p686
aVhttp://geekologie.com/2016/05/doctors-perform-first-successful-penis-t-1.php
p687
aVhttp://feeds.feedburner.com/geekologie/iShm
p688
aVhttp://www.anticlown.com/privacy_policy.php
p689
aVhttp://www.anticlown.com/terms_of_use.php
p690
aVhttp://www.anticlown.com/removal.php
p691
aVhttps://musopen.org/
p692
aVhttps://creativecommons.org/licenses/by/3.0/
p693
aVhttps://help.github.com/terms
p694
aVhttps://help.github.com/privacy
p695
aVhttps://github.com/blog/2164-introducing-unlimited-private-repositories
p696
aVhttps://help.github.com/articles/searching-github#types-of-searches
p697
aVhttps://help.github.com/articles/searching-repositories
p698
aVhttps://help.github.com/articles/searching-code
p699
aVhttps://help.github.com/articles/searching-issues
p700
aVhttps://help.github.com/articles/searching-users
p701
aVhttps://github.com/octocat/octocat.github.io/commit/67c0afc1da354d8571f51b6f0af8f2794117fd10.patch
p702
a.