(lp0
Vhttps://www.google.co.uk/imghp?hl=en&tab=wi
p1
aVhttps://www.youtube.com/?gl=GB&tab=w1
p2
aVhttps://www.google.co.uk/intl/en/options/
p3
aVhttps://www.google.co.uk/setprefdomain?prefdom=US&sig=__iqGjaVM2nTLAzmsxczDOT4IpesA%3D
p4
aVhttps://www.youtube.com/?hl=en&gl=GB&tab=w1
p5
aVhttps://www.google.co.uk/setprefdomain?prefdom=US&sig=__DiYfpRIUWO9PKtjweFoPQG2hrmw%3D
p6
aVhttps://www.google.com/intl/en/policies/privacy/
p7
aVhttps://www.google.com/dashboard/?hl=en-GB
p8
aVhttps://www.google.com/settings/ads/preferences?hl=en-GB
p9
aVhttps://www.google.com/work/apps/terms/education_privacy.html
p10
aVhttps://www.youtube.com/embed/zcjYUbypgx0?vq=hd1080&autoplay=1&rel=0
p11
aVhttps://www.youtube.com/embed/7NTTAs7IleA?vq=hd1080&autoplay=1&rel=0
p12
aVhttps://www.youtube.com/embed/_PQmqJOD3S4?vq=hd1080&autoplay=1&rel=0
p13
aVhttps://www.youtube.com/embed/BzMidTWYsME?vq=hd1080&autoplay=1&rel=0
p14
a.