(lp0
Vhttps://www.youtube.com/embed/zcjYUbypgx0?vq=hd1080&autoplay=1&rel=0
p1
aVhttps://www.youtube.com/embed/7NTTAs7IleA?vq=hd1080&autoplay=1&rel=0
p2
aVhttps://www.youtube.com/embed/_PQmqJOD3S4?vq=hd1080&autoplay=1&rel=0
p3
aVhttps://www.youtube.com/embed/BzMidTWYsME?vq=hd1080&autoplay=1&rel=0
p4
aVhttps://www.google.co.uk/setprefdomain?prefdom=US&sig=__pmio-BRAvsW8aSwYdTe9lBZK5c8%3D
p5
aVhttps://www.google.co.uk/setprefdomain?prefdom=US&sig=__WsBSoGrzU1uVcF6XzI1EFNYf9D4%3D
p6
aVhttps://www.google.co.uk/setprefdomain?prefdom=US&sig=__5pr98nwo9RbbClU8cgsHCp35mTk%3D
p7
aVhttps://www.google.com/dashboard/?hl=en
p8
aVhttps://www.google.com/settings/ads/preferences?hl=en
p9
aVhttps://www.google.com/intl/en-GB/about
p10
aVhttps://www.google.co.uk/webhp
p11
aVhttps://www.youtube.com/
p12
aVhttps://www.google.com/calendar
p13
aVhttps://www.google.co.uk/intl/en-GB/options/
p14
aVhttps://www.google.com/chrome/?hl=en-GB
p15
aVhttps://www.mozilla.com/firefox/
p16
aVhttps://www.microsoft.com/windows/internet-explorer/default.aspx
p17
aVhttps://www.apple.com/safari/download/
p18
aVhttps://www.google.com/webhp?hl=en-GB
p19
aVhttps://www.google.com/policies/?hl=en-GB
p20
aVhttps://www.google.com/intl/en/edu
p21
aVhttps://www.google.com/intx/en/work/apps/terms/dpa_terms.html
p22
a.